Certificate:
    Data:
        Version: 3 (0x2)
        Serial Number: 1 (0x1)
        Signature Algorithm: sha256WithRSAEncryption
        Issuer: C=CN, O=steam-anti-dns-poisoning CA, CN=Pixiv.net
        Validity
            Not Before: Feb 28 01:24:56 2023 GMT
            Not After : Feb 28 01:24:56 2024 GMT
        Subject: C=CN, O=steam-anti-dns-poisoning CA, CN=Pixiv.net
        Subject Public Key Info:
            Public Key Algorithm: rsaEncryption
                Public-Key: (2048 bit)
                Modulus:
                    00:be:bb:10:70:21:c0:28:f4:2f:da:70:7f:03:db:
                    e1:56:03:68:53:e6:00:d5:8f:e4:56:72:27:53:e3:
                    9a:da:9e:88:89:ee:bc:47:21:93:1d:11:8e:1f:4e:
                    40:5d:a1:59:87:d3:b4:db:28:56:d3:b0:9e:4e:15:
                    9e:82:fc:c0:f4:a4:4d:99:89:27:fb:24:65:71:d1:
                    96:74:31:e7:f3:39:19:ed:0f:77:b9:d9:9f:07:dc:
                    d3:02:31:ae:17:6b:fe:56:34:f1:49:db:92:d3:2a:
                    df:f7:69:84:8c:e6:22:26:a0:6e:8a:39:70:57:85:
                    09:2a:a1:4d:42:d6:e1:c8:cc:7a:d1:7e:10:13:da:
                    44:30:37:30:e0:f3:e8:8b:eb:69:70:4b:63:d9:28:
                    55:4d:f3:25:03:bb:9d:b8:a7:97:e1:ee:54:fe:75:
                    0c:11:a0:ea:3f:58:62:f0:c7:39:04:3b:4d:a2:a9:
                    c4:d7:4d:0c:1a:8d:b0:43:c4:fa:95:b8:27:cf:95:
                    93:fb:52:15:b9:0c:97:02:bd:48:64:55:79:bd:2b:
                    de:03:a0:53:ec:40:42:97:9f:cf:87:bb:5e:79:89:
                    09:bf:7d:a5:5f:a4:5e:d4:77:d8:5e:04:67:27:b5:
                    83:f7:f6:9e:e3:74:46:b8:cd:9b:f6:10:dd:87:31:
                    d9:b7
                Exponent: 65537 (0x10001)
        X509v3 extensions:
            X509v3 Key Usage: 
                Digital Signature
            X509v3 Extended Key Usage: 
                TLS Web Server Authentication, TLS Web Client Authentication
            X509v3 Basic Constraints: 
                CA:FALSE
            X509v3 Subject Alternative Name: 
                DNS:*.pixiv.net, DNS:pixiv.net, DNS:*.secure.pixiv.net, DNS:pixivision.net, DNS:*.pixivision.net, DNS:pixiv.me, DNS:*.pixiv.me, DNS:pximg.net, DNS:*.pximg.net, DNS:pixivsketch.net, DNS:*.pixivsketch.net, DNS:public-api.secure.pixiv.net, DNS:google.com, DNS:*.google.com, DNS:steamcommunity.com, DNS:*.steamcommunity.com, DNS:steampowered.com, DNS:*.steampowered.com, DNS:archiveofourown.org, DNS:*.archiveofourown.org, DNS:nyaa.si, DNS:*.nyaa.si, DNS:exhentai.org, DNS:e-hentai.org, DNS:forums.e-hentai.org, DNS:*.github.com, DNS:duckduckgo.com, DNS:external-content.duckduckgo.com, DNS:discord.com, DNS:*.discord.com, DNS:discordapp.com, DNS:*.discordapp.com, DNS:*.discordapp.net, DNS:discord.gg, DNS:*.discord.gg, DNS:github.com, DNS:*.githubusercontent.com, DNS:githubstatus.com, DNS:github.global.ssl.fastly.net, DNS:*.github.com, DNS:githubusercontent.com, DNS:onedrive.live.com, DNS:*.onedrive.live.com, DNS:1drv.ms, DNS:v2ex.com, DNS:*.v2ex.com, DNS:gravatar.com, DNS:*.gravatar.com
            X509v3 Subject Key Identifier: 
                92:1B:94:34:27:C7:B5:D5:C3:E2:FC:09:BF:1C:34:A1:34:E5:B6:0E
            X509v3 Authority Key Identifier: 
                DirName:/C=CN/O=steam-anti-dns-poisoning CA/CN=Pixiv.net
                serial:50:05:50:9F:F4:8B:FE:0A:6F:41:6C:AA:3F:F5:7C:65:38:81:9A:D1
    Signature Algorithm: sha256WithRSAEncryption
    Signature Value:
        11:b2:93:57:85:ce:45:ae:03:41:ca:9a:a3:28:f6:ef:25:7c:
        06:48:48:28:24:b4:a2:78:0c:06:dc:df:3f:14:6a:2d:5d:d9:
        f0:bf:6c:f6:55:8e:3b:59:74:f4:82:92:c9:81:19:0a:db:3f:
        13:88:fc:6d:06:8d:5b:a9:14:e8:a1:3a:55:25:0d:c3:fc:9b:
        d5:0c:8b:48:4c:f6:1f:8d:fc:cf:d5:85:7f:0b:43:df:99:07:
        cc:1f:fd:c5:2f:cf:7a:57:23:13:5d:9e:c0:dd:03:fa:65:b6:
        60:8f:56:0a:86:b6:b9:fa:f5:ac:5d:d2:e9:63:07:43:64:fe:
        d3:04:36:d3:31:88:2d:10:0e:b2:9f:ae:75:5c:85:c1:06:20:
        54:4b:90:57:e2:da:f0:0b:63:17:ae:6f:a4:b9:08:ad:d6:d9:
        3d:fa:f2:98:ae:39:b0:6b:46:5f:2c:45:88:4b:92:b9:2a:69:
        75:8d:9f:f3:55:43:7b:a5:42:7b:ed:93:6d:54:9e:ad:a1:13:
        8a:a4:49:7d:9a:d0:aa:d3:3c:9d:6e:88:79:d9:f8:4a:a7:2f:
        9a:6c:63:ca:75:56:ec:e0:68:d8:f5:6d:57:32:ed:97:59:03:
        75:b6:b9:5d:33:6a:e6:de:51:09:bd:13:1c:9b:ae:d1:9d:26:
        f6:17:e6:6d
-----BEGIN CERTIFICATE-----
MIIHBDCCBeygAwIBAgIBATANBgkqhkiG9w0BAQsFADBHMQswCQYDVQQGEwJDTjEk
MCIGA1UECgwbc3RlYW0tYW50aS1kbnMtcG9pc29uaW5nIENBMRIwEAYDVQQDDAlQ
aXhpdi5uZXQwHhcNMjMwMjI4MDEyNDU2WhcNMjQwMjI4MDEyNDU2WjBHMQswCQYD
VQQGEwJDTjEkMCIGA1UECgwbc3RlYW0tYW50aS1kbnMtcG9pc29uaW5nIENBMRIw
EAYDVQQDDAlQaXhpdi5uZXQwggEiMA0GCSqGSIb3DQEBAQUAA4IBDwAwggEKAoIB
AQC+uxBwIcAo9C/acH8D2+FWA2hT5gDVj+RWcidT45ranoiJ7rxHIZMdEY4fTkBd
oVmH07TbKFbTsJ5OFZ6C/MD0pE2ZiSf7JGVx0ZZ0MefzORntD3e52Z8H3NMCMa4X
a/5WNPFJ25LTKt/3aYSM5iImoG6KOXBXhQkqoU1C1uHIzHrRfhAT2kQwNzDg8+iL
62lwS2PZKFVN8yUDu524p5fh7lT+dQwRoOo/WGLwxzkEO02iqcTXTQwajbBDxPqV
uCfPlZP7UhW5DJcCvUhkVXm9K94DoFPsQEKXn8+Hu155iQm/faVfpF7Ud9heBGcn
tYP39p7jdEa4zZv2EN2HMdm3AgMBAAGjggP5MIID9TALBgNVHQ8EBAMCB4AwHQYD
VR0lBBYwFAYIKwYBBQUHAwEGCCsGAQUFBwMCMAkGA1UdEwQCMAAwggMtBgNVHREE
ggMkMIIDIIILKi5waXhpdi5uZXSCCXBpeGl2Lm5ldIISKi5zZWN1cmUucGl4aXYu
bmV0gg5waXhpdmlzaW9uLm5ldIIQKi5waXhpdmlzaW9uLm5ldIIIcGl4aXYubWWC
CioucGl4aXYubWWCCXB4aW1nLm5ldIILKi5weGltZy5uZXSCD3BpeGl2c2tldGNo
Lm5ldIIRKi5waXhpdnNrZXRjaC5uZXSCG3B1YmxpYy1hcGkuc2VjdXJlLnBpeGl2
Lm5ldIIKZ29vZ2xlLmNvbYIMKi5nb29nbGUuY29tghJzdGVhbWNvbW11bml0eS5j
b22CFCouc3RlYW1jb21tdW5pdHkuY29tghBzdGVhbXBvd2VyZWQuY29tghIqLnN0
ZWFtcG93ZXJlZC5jb22CE2FyY2hpdmVvZm91cm93bi5vcmeCFSouYXJjaGl2ZW9m
b3Vyb3duLm9yZ4IHbnlhYS5zaYIJKi5ueWFhLnNpggxleGhlbnRhaS5vcmeCDGUt
aGVudGFpLm9yZ4ITZm9ydW1zLmUtaGVudGFpLm9yZ4IMKi5naXRodWIuY29tgg5k
dWNrZHVja2dvLmNvbYIfZXh0ZXJuYWwtY29udGVudC5kdWNrZHVja2dvLmNvbYIL
ZGlzY29yZC5jb22CDSouZGlzY29yZC5jb22CDmRpc2NvcmRhcHAuY29tghAqLmRp
c2NvcmRhcHAuY29tghAqLmRpc2NvcmRhcHAubmV0ggpkaXNjb3JkLmdnggwqLmRp
c2NvcmQuZ2eCCmdpdGh1Yi5jb22CFyouZ2l0aHVidXNlcmNvbnRlbnQuY29tghBn
aXRodWJzdGF0dXMuY29tghxnaXRodWIuZ2xvYmFsLnNzbC5mYXN0bHkubmV0ggwq
LmdpdGh1Yi5jb22CFWdpdGh1YnVzZXJjb250ZW50LmNvbYIRb25lZHJpdmUubGl2
ZS5jb22CEyoub25lZHJpdmUubGl2ZS5jb22CBzFkcnYubXOCCHYyZXguY29tggoq
LnYyZXguY29tggxncmF2YXRhci5jb22CDiouZ3JhdmF0YXIuY29tMB0GA1UdDgQW
BBSSG5Q0J8e11cPi/Am/HDShNOW2DjBsBgNVHSMEZTBjoUukSTBHMQswCQYDVQQG
EwJDTjEkMCIGA1UECgwbc3RlYW0tYW50aS1kbnMtcG9pc29uaW5nIENBMRIwEAYD
VQQDDAlQaXhpdi5uZXSCFFAFUJ/0i/4Kb0Fsqj/1fGU4gZrRMA0GCSqGSIb3DQEB
CwUAA4IBAQARspNXhc5FrgNBypqjKPbvJXwGSEgoJLSieAwG3N8/FGotXdnwv2z2
VY47WXT0gpLJgRkK2z8TiPxtBo1bqRTooTpVJQ3D/JvVDItITPYfjfzP1YV/C0Pf
mQfMH/3FL896VyMTXZ7A3QP6ZbZgj1YKhra5+vWsXdLpYwdDZP7TBDbTMYgtEA6y
n651XIXBBiBUS5BX4trwC2MXrm+kuQit1tk9+vKYrjmwa0ZfLEWIS5K5Kml1jZ/z
VUN7pUJ77ZNtVJ6toROKpEl9mtCq0zydboh52fhKpy+abGPKdVbs4GjY9W1XMu2X
WQN1trldM2rm3lEJvRMcm67RnSb2F+Zt
-----END CERTIFICATE-----
