Certificate:
    Data:
        Version: 3 (0x2)
        Serial Number: 1 (0x1)
        Signature Algorithm: sha256WithRSAEncryption
        Issuer: C=CN, O=steam-anti-dns-poisoning CA, CN=Pixiv.net
        Validity
            Not Before: Apr 15 08:32:16 2023 GMT
            Not After : Apr 14 08:32:16 2024 GMT
        Subject: C=CN, O=steam-anti-dns-poisoning CA, CN=Pixiv.net
        Subject Public Key Info:
            Public Key Algorithm: rsaEncryption
                Public-Key: (4096 bit)
                Modulus:
                    00:cc:02:fb:e7:a8:d8:da:5c:3e:ec:6f:e0:cb:9e:
                    3e:16:8a:a3:f5:73:8f:fa:ee:73:69:43:4f:9a:d9:
                    b8:f9:a8:75:ff:8c:50:b7:12:d7:87:7e:0d:59:b0:
                    e4:e7:34:bd:74:8d:71:ca:42:48:1c:d1:63:74:cb:
                    44:0f:4f:ca:ce:4c:67:97:4d:25:21:56:e3:41:23:
                    92:1d:9a:b5:36:53:1c:e6:ae:d4:15:ac:05:4f:6b:
                    a4:87:77:70:df:48:03:ad:a5:d4:4f:04:9d:63:be:
                    cb:79:2f:b2:22:b3:a1:04:c9:2b:20:1e:47:f3:de:
                    45:0d:01:a1:12:00:ee:d5:56:df:4d:eb:9f:1c:ae:
                    6b:19:2b:d9:57:e4:21:6f:4a:38:d3:79:a9:f8:f9:
                    30:61:03:30:dd:ba:2b:4b:cb:e3:d5:57:39:8f:b4:
                    68:e9:4b:03:d3:a6:fb:e1:02:84:61:0f:50:db:a3:
                    5b:4b:b9:7e:cc:31:ca:33:3b:d4:8e:cb:17:ad:97:
                    79:e7:fc:de:5b:47:5d:7e:99:91:66:af:93:24:4c:
                    e4:5b:67:db:4f:9a:56:98:59:ed:74:b4:ad:c5:1b:
                    62:32:a5:72:bd:08:6a:00:c6:80:4e:47:17:dc:aa:
                    b1:d4:80:65:87:25:9e:8a:82:f1:37:53:3b:88:e4:
                    5d:d7:33:95:98:ba:e1:e7:cb:16:ae:82:9a:b1:b3:
                    07:42:35:86:88:05:28:49:83:34:35:cd:54:87:65:
                    2f:42:b4:a2:39:44:7b:25:fc:52:86:af:c3:6d:7c:
                    34:6a:18:2f:5e:4c:a7:e7:06:46:4c:f3:d0:b3:4c:
                    b4:fb:b2:b3:50:42:ad:f3:51:86:3f:36:fe:38:70:
                    ff:34:07:7a:59:b3:fa:99:68:73:20:3a:a0:8a:1d:
                    6d:af:93:2f:96:e8:fd:2f:d6:10:05:5b:ff:e0:8e:
                    d2:1e:90:6a:f7:71:f8:46:c9:1c:81:8e:e0:74:88:
                    49:b2:5d:78:1e:6d:05:89:ed:ac:b9:1e:1f:13:15:
                    13:cd:1d:6e:b2:a1:a8:72:cf:53:c7:85:ec:63:a8:
                    b1:68:29:dd:60:20:9b:d3:59:ce:36:0a:aa:6d:8a:
                    18:5c:16:f7:d0:94:38:2d:a5:f9:7a:8f:9f:3b:30:
                    c7:74:11:69:14:9c:4a:d9:b7:7f:a7:f1:29:88:36:
                    2a:0a:46:a2:1b:0c:e5:96:64:f0:52:c9:da:f1:50:
                    63:7a:30:5f:44:42:11:ba:f2:ab:15:27:93:0f:fa:
                    6b:26:de:44:f6:87:95:ab:ed:53:84:66:ee:91:b3:
                    f6:f6:ec:0f:e7:a3:43:8d:2b:29:f5:c4:32:7a:c4:
                    d5:69:e5
                Exponent: 65537 (0x10001)
        X509v3 extensions:
            X509v3 Key Usage: 
                Digital Signature
            X509v3 Extended Key Usage: 
                TLS Web Server Authentication, TLS Web Client Authentication
            X509v3 Basic Constraints: 
                CA:FALSE
            X509v3 Subject Alternative Name: 
                DNS:*.pixiv.net, DNS:pixiv.net, DNS:*.secure.pixiv.net, DNS:pixivision.net, DNS:*.pixivision.net, DNS:pixiv.me, DNS:*.pixiv.me, DNS:pximg.net, DNS:*.pximg.net, DNS:pixivsketch.net, DNS:*.pixivsketch.net, DNS:public-api.secure.pixiv.net, DNS:google.com, DNS:*.google.com, DNS:steamcommunity.com, DNS:*.steamcommunity.com, DNS:steampowered.com, DNS:*.steampowered.com, DNS:archiveofourown.org, DNS:*.archiveofourown.org, DNS:nyaa.si, DNS:*.nyaa.si, DNS:exhentai.org, DNS:e-hentai.org, DNS:forums.e-hentai.org, DNS:*.github.com, DNS:duckduckgo.com, DNS:external-content.duckduckgo.com, DNS:discord.com, DNS:*.discord.com, DNS:discordapp.com, DNS:*.discordapp.com, DNS:*.discordapp.net, DNS:discord.gg, DNS:*.discord.gg, DNS:github.com, DNS:*.githubusercontent.com, DNS:githubstatus.com, DNS:github.global.ssl.fastly.net, DNS:*.github.com, DNS:githubusercontent.com, DNS:onedrive.live.com, DNS:*.onedrive.live.com, DNS:1drv.ms, DNS:v2ex.com, DNS:*.v2ex.com, DNS:gravatar.com, DNS:*.funcaptcha.com
            X509v3 Subject Key Identifier: 
                63:D3:81:0D:1A:A7:32:CA:F4:B8:B8:41:58:CD:CA:9F:66:AE:A5:71
            X509v3 Authority Key Identifier: 
                DirName:/C=CN/O=steam-anti-dns-poisoning CA/CN=Pixiv.net
                serial:63:4C:C1:C2:97:1E:FB:C2:15:B2:8A:BB:19:D6:DF:C4:88:64:6C:A4
    Signature Algorithm: sha256WithRSAEncryption
    Signature Value:
        82:34:e4:b3:4d:39:f8:60:f4:56:d0:cc:80:dc:ef:7b:e6:f5:
        44:0b:c1:fb:9f:e9:7a:6a:51:4a:c0:e3:1d:e8:62:03:48:76:
        9e:34:72:e7:e9:71:0d:8f:69:7a:5a:51:a8:64:62:e6:c1:8f:
        bf:40:ef:d7:b1:0e:ba:e0:d5:21:74:3c:4f:e5:a6:0f:3f:7c:
        b3:c2:e7:d0:2f:c3:27:13:fe:bb:2f:ce:7e:21:18:4c:96:29:
        28:d1:94:41:63:5d:ab:23:a3:7d:a8:c7:b3:0b:e8:d8:82:ab:
        e1:4a:1d:33:d1:72:59:e6:c7:45:9c:e2:6b:26:47:4a:57:d5:
        94:79:f6:83:59:bc:42:68:34:9e:d4:e9:0b:0f:e1:e2:10:01:
        90:09:43:6d:a2:b5:60:5d:1a:ec:21:6e:2b:e5:46:26:1c:29:
        d7:b9:60:c3:cb:a0:d1:42:d5:f7:97:b4:52:13:cc:00:7e:24:
        e8:bc:55:27:a7:7a:7a:a0:2c:02:15:54:d2:22:96:d8:96:5b:
        8d:05:6e:f4:c5:7f:28:dc:12:0a:53:00:32:09:2e:99:df:08:
        5e:52:c8:9f:12:7d:82:fe:39:65:1d:86:a1:e2:bf:b6:99:43:
        fc:21:13:71:88:99:25:6d:7d:b5:4d:8d:b2:73:94:61:a7:b7:
        bd:35:17:d6:b3:b8:cc:14:a8:10:e2:c5:4d:12:ee:e6:ea:ba:
        53:80:c6:9a:55:ce:ce:1c:22:05:17:c3:0b:5f:42:65:e8:26:
        4b:b8:bd:25:98:50:14:83:db:18:80:c4:01:8b:c5:1c:1e:eb:
        99:bc:46:0c:4c:4c:6c:a2:88:67:99:cb:ea:df:33:59:d5:77:
        97:25:39:c5:a3:44:23:81:3f:4f:e6:d2:6d:9e:e8:99:73:9e:
        35:1a:b9:e0:c4:72:32:41:75:21:a3:7c:8a:eb:5d:12:e9:65:
        e6:1f:35:5b:16:d5:f5:d6:10:bb:83:89:31:04:0c:ec:c5:28:
        15:eb:56:88:bb:1b:6b:da:3a:fa:b2:fe:01:b4:0c:0a:1a:5c:
        67:d5:50:4c:0f:95:22:38:51:83:6d:1b:fa:13:12:30:29:69:
        a2:0f:c0:12:96:7b:0c:7c:96:04:d2:31:f1:99:47:75:f8:7e:
        02:2b:c2:02:4e:89:fb:b8:b0:5d:7c:3a:9e:5a:a9:97:da:11:
        b1:2b:9a:00:af:fd:c0:e1:4d:6f:c9:c5:e9:a4:ad:5b:cd:99:
        e5:f5:74:b6:49:54:bd:d9:ac:dc:c0:14:b7:14:d7:f9:51:9c:
        b5:b3:97:02:06:b9:da:c7:3d:e5:d2:82:df:27:b0:31:44:ff:
        4b:e9:92:d1:a0:77:60:f7
-----BEGIN CERTIFICATE-----
MIIJBjCCBu6gAwIBAgIBATANBgkqhkiG9w0BAQsFADBHMQswCQYDVQQGEwJDTjEk
MCIGA1UECgwbc3RlYW0tYW50aS1kbnMtcG9pc29uaW5nIENBMRIwEAYDVQQDDAlQ
aXhpdi5uZXQwHhcNMjMwNDE1MDgzMjE2WhcNMjQwNDE0MDgzMjE2WjBHMQswCQYD
VQQGEwJDTjEkMCIGA1UECgwbc3RlYW0tYW50aS1kbnMtcG9pc29uaW5nIENBMRIw
EAYDVQQDDAlQaXhpdi5uZXQwggIiMA0GCSqGSIb3DQEBAQUAA4ICDwAwggIKAoIC
AQDMAvvnqNjaXD7sb+DLnj4WiqP1c4/67nNpQ0+a2bj5qHX/jFC3EteHfg1ZsOTn
NL10jXHKQkgc0WN0y0QPT8rOTGeXTSUhVuNBI5IdmrU2UxzmrtQVrAVPa6SHd3Df
SAOtpdRPBJ1jvst5L7Iis6EEySsgHkfz3kUNAaESAO7VVt9N658crmsZK9lX5CFv
SjjTean4+TBhAzDduitLy+PVVzmPtGjpSwPTpvvhAoRhD1Dbo1tLuX7MMcozO9SO
yxetl3nn/N5bR11+mZFmr5MkTORbZ9tPmlaYWe10tK3FG2IypXK9CGoAxoBORxfc
qrHUgGWHJZ6KgvE3UzuI5F3XM5WYuuHnyxaugpqxswdCNYaIBShJgzQ1zVSHZS9C
tKI5RHsl/FKGr8NtfDRqGC9eTKfnBkZM89CzTLT7srNQQq3zUYY/Nv44cP80B3pZ
s/qZaHMgOqCKHW2vky+W6P0v1hAFW//gjtIekGr3cfhGyRyBjuB0iEmyXXgebQWJ
7ay5Hh8TFRPNHW6yoahyz1PHhexjqLFoKd1gIJvTWc42CqptihhcFvfQlDgtpfl6
j587MMd0EWkUnErZt3+n8SmINioKRqIbDOWWZPBSydrxUGN6MF9EQhG68qsVJ5MP
+msm3kT2h5Wr7VOEZu6Rs/b27A/no0ONKyn1xDJ6xNVp5QIDAQABo4ID+zCCA/cw
CwYDVR0PBAQDAgeAMB0GA1UdJQQWMBQGCCsGAQUFBwMBBggrBgEFBQcDAjAJBgNV
HRMEAjAAMIIDLwYDVR0RBIIDJjCCAyKCCyoucGl4aXYubmV0gglwaXhpdi5uZXSC
Eiouc2VjdXJlLnBpeGl2Lm5ldIIOcGl4aXZpc2lvbi5uZXSCECoucGl4aXZpc2lv
bi5uZXSCCHBpeGl2Lm1lggoqLnBpeGl2Lm1lgglweGltZy5uZXSCCyoucHhpbWcu
bmV0gg9waXhpdnNrZXRjaC5uZXSCESoucGl4aXZza2V0Y2gubmV0ghtwdWJsaWMt
YXBpLnNlY3VyZS5waXhpdi5uZXSCCmdvb2dsZS5jb22CDCouZ29vZ2xlLmNvbYIS
c3RlYW1jb21tdW5pdHkuY29tghQqLnN0ZWFtY29tbXVuaXR5LmNvbYIQc3RlYW1w
b3dlcmVkLmNvbYISKi5zdGVhbXBvd2VyZWQuY29tghNhcmNoaXZlb2ZvdXJvd24u
b3JnghUqLmFyY2hpdmVvZm91cm93bi5vcmeCB255YWEuc2mCCSoubnlhYS5zaYIM
ZXhoZW50YWkub3JnggxlLWhlbnRhaS5vcmeCE2ZvcnVtcy5lLWhlbnRhaS5vcmeC
DCouZ2l0aHViLmNvbYIOZHVja2R1Y2tnby5jb22CH2V4dGVybmFsLWNvbnRlbnQu
ZHVja2R1Y2tnby5jb22CC2Rpc2NvcmQuY29tgg0qLmRpc2NvcmQuY29tgg5kaXNj
b3JkYXBwLmNvbYIQKi5kaXNjb3JkYXBwLmNvbYIQKi5kaXNjb3JkYXBwLm5ldIIK
ZGlzY29yZC5nZ4IMKi5kaXNjb3JkLmdnggpnaXRodWIuY29tghcqLmdpdGh1YnVz
ZXJjb250ZW50LmNvbYIQZ2l0aHVic3RhdHVzLmNvbYIcZ2l0aHViLmdsb2JhbC5z
c2wuZmFzdGx5Lm5ldIIMKi5naXRodWIuY29tghVnaXRodWJ1c2VyY29udGVudC5j
b22CEW9uZWRyaXZlLmxpdmUuY29tghMqLm9uZWRyaXZlLmxpdmUuY29tggcxZHJ2
Lm1zggh2MmV4LmNvbYIKKi52MmV4LmNvbYIMZ3JhdmF0YXIuY29tghAqLmZ1bmNh
cHRjaGEuY29tMB0GA1UdDgQWBBRj04ENGqcyyvS4uEFYzcqfZq6lcTBsBgNVHSME
ZTBjoUukSTBHMQswCQYDVQQGEwJDTjEkMCIGA1UECgwbc3RlYW0tYW50aS1kbnMt
cG9pc29uaW5nIENBMRIwEAYDVQQDDAlQaXhpdi5uZXSCFGNMwcKXHvvCFbKKuxnW
38SIZGykMA0GCSqGSIb3DQEBCwUAA4ICAQCCNOSzTTn4YPRW0MyA3O975vVEC8H7
n+l6alFKwOMd6GIDSHaeNHLn6XENj2l6WlGoZGLmwY+/QO/XsQ664NUhdDxP5aYP
P3yzwufQL8MnE/67L85+IRhMliko0ZRBY12rI6N9qMezC+jYgqvhSh0z0XJZ5sdF
nOJrJkdKV9WUefaDWbxCaDSe1OkLD+HiEAGQCUNtorVgXRrsIW4r5UYmHCnXuWDD
y6DRQtX3l7RSE8wAfiTovFUnp3p6oCwCFVTSIpbYlluNBW70xX8o3BIKUwAyCS6Z
3wheUsifEn2C/jllHYah4r+2mUP8IRNxiJklbX21TY2yc5Rhp7e9NRfWs7jMFKgQ
4sVNEu7m6rpTgMaaVc7OHCIFF8MLX0Jl6CZLuL0lmFAUg9sYgMQBi8UcHuuZvEYM
TExsoohnmcvq3zNZ1XeXJTnFo0QjgT9P5tJtnuiZc541GrngxHIyQXUho3yK610S
6WXmHzVbFtX11hC7g4kxBAzsxSgV61aIuxtr2jr6sv4BtAwKGlxn1VBMD5UiOFGD
bRv6ExIwKWmiD8ASlnsMfJYE0jHxmUd1+H4CK8ICTon7uLBdfDqeWqmX2hGxK5oA
r/3A4U1vycXppK1bzZnl9XS2SVS92azcwBS3FNf5UZy1s5cCBrnaxz3l0oLfJ7Ax
RP9L6ZLRoHdg9w==
-----END CERTIFICATE-----
