Certificate:
    Data:
        Version: 3 (0x2)
        Serial Number: 1 (0x1)
        Signature Algorithm: sha256WithRSAEncryption
        Issuer: C=CN, O=Mashiro Internet Fake Authority CA, CN=Pixiv.net
        Validity
            Not Before: Feb 10 07:06:50 2023 GMT
            Not After : Feb 10 07:06:50 2024 GMT
        Subject: C=CN, O=Mashiro Internet Fake Authority CA, CN=Pixiv.net
        Subject Public Key Info:
            Public Key Algorithm: rsaEncryption
                Public-Key: (2048 bit)
                Modulus:
                    00:a0:e0:fe:af:3e:80:5e:99:fd:8e:b0:17:75:82:
                    54:07:7d:12:a3:bc:99:a2:04:d9:ab:73:99:d3:a4:
                    6c:26:a5:b0:24:14:16:45:63:7b:0c:6f:88:24:c7:
                    09:b4:c3:ee:b0:a6:0a:7e:ce:25:55:15:92:33:18:
                    3b:1e:f7:f4:f7:0b:58:7a:22:59:b5:a6:26:47:87:
                    a7:c0:fc:5b:ac:44:da:17:0b:24:63:c1:06:aa:ac:
                    ea:fe:da:43:08:1e:21:79:83:79:6e:6c:2a:f9:4b:
                    ca:fe:bc:d7:37:e0:a0:7b:3e:1a:61:06:d8:57:61:
                    7d:00:69:c4:e2:fc:96:47:ec:1c:cd:bb:b6:a3:4e:
                    25:5b:5c:1c:c1:e9:81:f8:33:74:a4:60:7f:a2:da:
                    7e:b9:10:39:0e:40:57:4d:d0:18:e0:8b:76:a0:2e:
                    32:f8:18:1f:be:0b:d3:de:ec:93:76:62:60:41:90:
                    fa:22:4e:38:8f:3f:41:e0:e2:80:90:06:3a:2f:53:
                    54:15:cf:e9:e0:5c:e1:ea:f4:e5:98:6d:0c:ef:f7:
                    31:1c:97:52:84:53:22:e0:3b:92:a8:5a:30:23:b6:
                    ca:91:5a:68:1f:d5:49:f4:7f:08:da:29:fb:d8:3d:
                    66:48:15:aa:a5:51:ca:a6:9f:a6:99:56:d9:a0:4a:
                    0d:bf
                Exponent: 65537 (0x10001)
        X509v3 extensions:
            X509v3 Key Usage: 
                Digital Signature
            X509v3 Extended Key Usage: 
                TLS Web Server Authentication, TLS Web Client Authentication
            X509v3 Basic Constraints: 
                CA:FALSE
            X509v3 Subject Alternative Name: 
                DNS:*.pixiv.net, DNS:pixiv.net, DNS:*.secure.pixiv.net, DNS:pixivision.net, DNS:*.pixivision.net, DNS:pixiv.me, DNS:*.pixiv.me, DNS:pximg.net, DNS:*.pximg.net, DNS:pixivsketch.net, DNS:*.pixivsketch.net, DNS:public-api.secure.pixiv.net, DNS:google.com, DNS:*.google.com, DNS:steamcommunity.com, DNS:*.steamcommunity.com, DNS:steampowered.com, DNS:*.steampowered.com, DNS:archiveofourown.org, DNS:*.archiveofourown.org, DNS:nyaa.si, DNS:*.nyaa.si, DNS:exhentai.org, DNS:e-hentai.org, DNS:forums.e-hentai.org, DNS:img.youtube.com, DNS:duckduckgo.com, DNS:external-content.duckduckgo.com, DNS:pax.discordapp.com, DNS:apps.discordapp.com, DNS:canary.discordapp.com, DNS:printer.discordapp.com, DNS:merch.discordapp.com, DNS:url7195.discordapp.com, DNS:-url9624.discordapp.com, DNS:i18n.discordapp.com, DNS:streamkit.discordapp.com, DNS:cdn-canary.discordapp.com, DNS:ptb.discordapp.com, DNS:cdn-ptb.discordapp.com, DNS:canary-api.discordapp.com, DNS:url9177.discordapp.com, DNS:support.discordapp.com, DNS:i18n.discord.com, DNS:ptb.discord.com, DNS:streamkit.discord.com, DNS:status.discord.com, DNS:click.discord.com, DNS:canary.discord.com, DNS:dl.discordapp.net, DNS:printer.discord.com, DNS:pax.discord.com, DNS:feedback.discord.com, DNS:updates.discord.com, DNS:discord.com, DNS:images-ext-2.discordapp.net, DNS:images-ext-1.discordapp.net, DNS:status.discordapp.com, DNS:media.discordapp.net, DNS:cdn.discordapp.com, DNS:discordapp.com, DNS:support.discord.com, DNS:support-dev.discord.com, DNS:images-2.discordapp.net, DNS:images-1.discordapp.net, DNS:gateway.discord.gg, DNS:github.com
            X509v3 Subject Key Identifier: 
                27:33:B7:47:24:8E:9B:82:F1:31:02:27:89:BA:5F:C1:20:42:40:D9
            X509v3 Authority Key Identifier: 
                DirName:/C=CN/O=Mashiro Internet Fake Authority CA/CN=Pixiv.net
                serial:77:8A:35:1F:4E:1B:72:29:E5:16:A3:2C:97:25:E5:C0:F6:81:8B:10
    Signature Algorithm: sha256WithRSAEncryption
    Signature Value:
        29:24:73:34:3f:f6:e2:c4:f1:dc:b1:bd:83:08:a9:45:3c:d1:
        53:22:8a:be:0e:c0:19:55:63:ab:07:b1:01:32:66:db:59:b2:
        99:0a:0c:8b:95:98:8b:3f:3d:3d:ed:13:2c:f9:a3:f4:15:95:
        56:d3:ae:ef:e7:80:c8:4d:54:7f:da:ba:75:0c:af:9e:35:13:
        1c:11:29:12:5e:30:f1:bf:89:6b:67:95:bd:30:15:78:9e:4d:
        0a:ed:b0:c1:62:e8:75:0a:be:37:9f:fc:64:36:d7:a3:2b:b4:
        a7:1c:45:78:25:0d:17:c5:fc:16:d4:3f:31:fb:40:d6:0d:7c:
        13:a9:37:69:3f:e9:ab:83:83:99:65:2c:5f:af:4d:51:e6:a2:
        e2:d1:0f:1f:44:8a:76:1f:11:42:cc:83:10:63:2f:ae:d4:13:
        a0:b4:10:39:59:ec:97:96:29:01:09:95:7d:43:d5:01:a2:cc:
        e2:62:0c:7a:c5:79:61:d0:59:16:28:08:1f:50:e9:2e:5c:85:
        90:f1:14:1b:3a:5f:96:5e:36:f3:79:9b:2f:d0:d5:0f:06:9f:
        50:7f:39:a2:3b:76:0b:d9:ce:6d:1a:42:5e:f7:1c:46:2a:37:
        f9:e7:0c:85:93:a1:42:e9:e8:36:83:28:d6:6f:f4:b0:98:ad:
        28:b0:33:54
-----BEGIN CERTIFICATE-----
MIIJJDCCCAygAwIBAgIBATANBgkqhkiG9w0BAQsFADBOMQswCQYDVQQGEwJDTjEr
MCkGA1UECgwiTWFzaGlybyBJbnRlcm5ldCBGYWtlIEF1dGhvcml0eSBDQTESMBAG
A1UEAwwJUGl4aXYubmV0MB4XDTIzMDIxMDA3MDY1MFoXDTI0MDIxMDA3MDY1MFow
TjELMAkGA1UEBhMCQ04xKzApBgNVBAoMIk1hc2hpcm8gSW50ZXJuZXQgRmFrZSBB
dXRob3JpdHkgQ0ExEjAQBgNVBAMMCVBpeGl2Lm5ldDCCASIwDQYJKoZIhvcNAQEB
BQADggEPADCCAQoCggEBAKDg/q8+gF6Z/Y6wF3WCVAd9EqO8maIE2atzmdOkbCal
sCQUFkVjewxviCTHCbTD7rCmCn7OJVUVkjMYOx739PcLWHoiWbWmJkeHp8D8W6xE
2hcLJGPBBqqs6v7aQwgeIXmDeW5sKvlLyv681zfgoHs+GmEG2FdhfQBpxOL8lkfs
HM27tqNOJVtcHMHpgfgzdKRgf6LafrkQOQ5AV03QGOCLdqAuMvgYH74L097sk3Zi
YEGQ+iJOOI8/QeDigJAGOi9TVBXP6eBc4er05ZhtDO/3MRyXUoRTIuA7kqhaMCO2
ypFaaB/VSfR/CNop+9g9ZkgVqqVRyqafpplW2aBKDb8CAwEAAaOCBgswggYHMAsG
A1UdDwQEAwIHgDAdBgNVHSUEFjAUBggrBgEFBQcDAQYIKwYBBQUHAwIwCQYDVR0T
BAIwADCCBTgGA1UdEQSCBS8wggUrggsqLnBpeGl2Lm5ldIIJcGl4aXYubmV0ghIq
LnNlY3VyZS5waXhpdi5uZXSCDnBpeGl2aXNpb24ubmV0ghAqLnBpeGl2aXNpb24u
bmV0gghwaXhpdi5tZYIKKi5waXhpdi5tZYIJcHhpbWcubmV0ggsqLnB4aW1nLm5l
dIIPcGl4aXZza2V0Y2gubmV0ghEqLnBpeGl2c2tldGNoLm5ldIIbcHVibGljLWFw
aS5zZWN1cmUucGl4aXYubmV0ggpnb29nbGUuY29tggwqLmdvb2dsZS5jb22CEnN0
ZWFtY29tbXVuaXR5LmNvbYIUKi5zdGVhbWNvbW11bml0eS5jb22CEHN0ZWFtcG93
ZXJlZC5jb22CEiouc3RlYW1wb3dlcmVkLmNvbYITYXJjaGl2ZW9mb3Vyb3duLm9y
Z4IVKi5hcmNoaXZlb2ZvdXJvd24ub3JnggdueWFhLnNpggkqLm55YWEuc2mCDGV4
aGVudGFpLm9yZ4IMZS1oZW50YWkub3JnghNmb3J1bXMuZS1oZW50YWkub3Jngg9p
bWcueW91dHViZS5jb22CDmR1Y2tkdWNrZ28uY29tgh9leHRlcm5hbC1jb250ZW50
LmR1Y2tkdWNrZ28uY29tghJwYXguZGlzY29yZGFwcC5jb22CE2FwcHMuZGlzY29y
ZGFwcC5jb22CFWNhbmFyeS5kaXNjb3JkYXBwLmNvbYIWcHJpbnRlci5kaXNjb3Jk
YXBwLmNvbYIUbWVyY2guZGlzY29yZGFwcC5jb22CFnVybDcxOTUuZGlzY29yZGFw
cC5jb22CFy11cmw5NjI0LmRpc2NvcmRhcHAuY29tghNpMThuLmRpc2NvcmRhcHAu
Y29tghhzdHJlYW1raXQuZGlzY29yZGFwcC5jb22CGWNkbi1jYW5hcnkuZGlzY29y
ZGFwcC5jb22CEnB0Yi5kaXNjb3JkYXBwLmNvbYIWY2RuLXB0Yi5kaXNjb3JkYXBw
LmNvbYIZY2FuYXJ5LWFwaS5kaXNjb3JkYXBwLmNvbYIWdXJsOTE3Ny5kaXNjb3Jk
YXBwLmNvbYIWc3VwcG9ydC5kaXNjb3JkYXBwLmNvbYIQaTE4bi5kaXNjb3JkLmNv
bYIPcHRiLmRpc2NvcmQuY29tghVzdHJlYW1raXQuZGlzY29yZC5jb22CEnN0YXR1
cy5kaXNjb3JkLmNvbYIRY2xpY2suZGlzY29yZC5jb22CEmNhbmFyeS5kaXNjb3Jk
LmNvbYIRZGwuZGlzY29yZGFwcC5uZXSCE3ByaW50ZXIuZGlzY29yZC5jb22CD3Bh
eC5kaXNjb3JkLmNvbYIUZmVlZGJhY2suZGlzY29yZC5jb22CE3VwZGF0ZXMuZGlz
Y29yZC5jb22CC2Rpc2NvcmQuY29tghtpbWFnZXMtZXh0LTIuZGlzY29yZGFwcC5u
ZXSCG2ltYWdlcy1leHQtMS5kaXNjb3JkYXBwLm5ldIIVc3RhdHVzLmRpc2NvcmRh
cHAuY29tghRtZWRpYS5kaXNjb3JkYXBwLm5ldIISY2RuLmRpc2NvcmRhcHAuY29t
gg5kaXNjb3JkYXBwLmNvbYITc3VwcG9ydC5kaXNjb3JkLmNvbYIXc3VwcG9ydC1k
ZXYuZGlzY29yZC5jb22CF2ltYWdlcy0yLmRpc2NvcmRhcHAubmV0ghdpbWFnZXMt
MS5kaXNjb3JkYXBwLm5ldIISZ2F0ZXdheS5kaXNjb3JkLmdnggpnaXRodWIuY29t
MB0GA1UdDgQWBBQnM7dHJI6bgvExAieJul/BIEJA2TBzBgNVHSMEbDBqoVKkUDBO
MQswCQYDVQQGEwJDTjErMCkGA1UECgwiTWFzaGlybyBJbnRlcm5ldCBGYWtlIEF1
dGhvcml0eSBDQTESMBAGA1UEAwwJUGl4aXYubmV0ghR3ijUfThtyKeUWoyyXJeXA
9oGLEDANBgkqhkiG9w0BAQsFAAOCAQEAKSRzND/24sTx3LG9gwipRTzRUyKKvg7A
GVVjqwexATJm21mymQoMi5WYiz89Pe0TLPmj9BWVVtOu7+eAyE1Uf9q6dQyvnjUT
HBEpEl4w8b+Ja2eVvTAVeJ5NCu2wwWLodQq+N5/8ZDbXoyu0pxxFeCUNF8X8FtQ/
MftA1g18E6k3aT/pq4ODmWUsX69NUeai4tEPH0SKdh8RQsyDEGMvrtQToLQQOVns
l5YpAQmVfUPVAaLM4mIMesV5YdBZFigIH1DpLlyFkPEUGzpfll4283mbL9DVDwaf
UH85ojt2C9nObRpCXvccRio3+ecMhZOhQunoNoMo1m/0sJitKLAzVA==
-----END CERTIFICATE-----
