Certificate:
    Data:
        Version: 3 (0x2)
        Serial Number: 1 (0x1)
        Signature Algorithm: sha256WithRSAEncryption
        Issuer: C=CN, O=steam-anti-dns-poisoning CA, CN=Pixiv.net
        Validity
            Not Before: Feb 25 14:11:59 2023 GMT
            Not After : Feb 25 14:11:59 2024 GMT
        Subject: C=CN, O=steam-anti-dns-poisoning CA, CN=Pixiv.net
        Subject Public Key Info:
            Public Key Algorithm: rsaEncryption
                Public-Key: (2048 bit)
                Modulus:
                    00:90:2c:9f:16:4f:9a:40:c5:b7:49:89:70:a3:d6:
                    33:38:d1:d8:eb:cb:4a:e3:24:26:8c:4e:f5:07:b1:
                    10:76:30:f1:8e:5b:13:ae:77:3c:a4:b8:e9:b3:9a:
                    af:95:dd:41:e8:10:b1:c7:28:5a:c7:e3:91:74:fa:
                    a6:9f:d4:a0:60:57:ff:a3:e2:6c:3f:b0:c1:e5:da:
                    9e:28:1f:bc:d5:41:b2:19:86:19:c9:4c:4d:74:ff:
                    0a:67:69:76:43:8f:3c:4e:b0:b7:92:dc:cc:8b:88:
                    c5:05:a1:3c:53:6e:9b:cd:52:45:69:01:a3:a6:57:
                    2c:97:40:c9:61:51:06:c6:fe:bc:65:52:0e:2f:69:
                    66:93:c0:26:a2:75:17:83:bc:bd:d7:11:75:0c:37:
                    77:20:27:14:6c:a3:02:6f:df:79:3f:b4:e0:78:2e:
                    1b:16:83:07:57:4e:3f:6e:20:b2:6a:40:25:6f:a9:
                    7d:3f:ab:28:33:ff:7f:9d:ab:ff:e2:d1:ae:da:55:
                    dc:fd:ad:56:44:6a:c9:72:fd:8a:ac:5e:0e:e9:f0:
                    2d:5c:06:2a:76:89:7e:d0:c7:f7:82:90:8a:7b:dc:
                    9d:0e:f1:4e:66:81:36:27:5a:fc:97:cb:2d:ff:e4:
                    c9:89:9d:57:6a:a4:2e:05:ff:87:2e:5d:4a:e0:0a:
                    69:ab
                Exponent: 65537 (0x10001)
        X509v3 extensions:
            X509v3 Key Usage: 
                Digital Signature
            X509v3 Extended Key Usage: 
                TLS Web Server Authentication, TLS Web Client Authentication
            X509v3 Basic Constraints: 
                CA:FALSE
            X509v3 Subject Alternative Name: 
                DNS:*.pixiv.net, DNS:pixiv.net, DNS:*.secure.pixiv.net, DNS:pixivision.net, DNS:*.pixivision.net, DNS:pixiv.me, DNS:*.pixiv.me, DNS:pximg.net, DNS:*.pximg.net, DNS:pixivsketch.net, DNS:*.pixivsketch.net, DNS:public-api.secure.pixiv.net, DNS:google.com, DNS:*.google.com, DNS:steamcommunity.com, DNS:*.steamcommunity.com, DNS:steampowered.com, DNS:*.steampowered.com, DNS:archiveofourown.org, DNS:*.archiveofourown.org, DNS:nyaa.si, DNS:*.nyaa.si, DNS:exhentai.org, DNS:e-hentai.org, DNS:forums.e-hentai.org, DNS:*.github.com, DNS:duckduckgo.com, DNS:external-content.duckduckgo.com, DNS:discord.com, DNS:*.discord.com, DNS:discordapp.com, DNS:*.discordapp.com, DNS:*.discordapp.net, DNS:discord.gg, DNS:*.discord.gg, DNS:github.com, DNS:*.githubusercontent.com, DNS:githubstatus.com, DNS:github.global.ssl.fastly.net, DNS:*.github.com, DNS:githubusercontent.com
            X509v3 Subject Key Identifier: 
                28:D9:AF:ED:B9:0D:D1:BF:B5:7D:34:F9:63:E3:37:90:7E:47:C3:53
            X509v3 Authority Key Identifier: 
                DirName:/C=CN/O=steam-anti-dns-poisoning CA/CN=Pixiv.net
                serial:30:E9:9D:FB:71:28:C5:6D:E4:E9:65:9F:FF:4E:C6:B8:17:BF:6B:AD
    Signature Algorithm: sha256WithRSAEncryption
    Signature Value:
        72:58:c9:14:50:5d:40:ef:4b:72:ea:fc:83:41:52:7f:72:e2:
        f3:83:41:ff:bc:6e:80:66:cd:b5:27:7c:d1:2f:ff:3b:34:03:
        16:d2:b4:93:b8:39:14:83:ef:0f:38:6e:39:e8:da:48:51:5b:
        1d:fd:6d:4b:f6:7b:8a:41:7c:d3:a5:43:02:a8:ec:ea:80:f5:
        1d:00:90:7d:c9:42:a2:4a:fc:5d:9f:3a:5c:68:51:7d:1a:a5:
        27:25:2d:b3:64:f1:1c:26:74:18:8e:bc:94:44:00:ba:92:85:
        84:a3:52:6c:b2:00:3b:3e:7a:77:04:a1:f7:93:a7:e2:f3:63:
        c6:19:30:1f:ef:e5:cf:4f:21:be:0c:7b:c1:d1:16:3e:12:1c:
        b6:98:3a:9b:b1:d6:33:48:6b:c8:b6:e9:a1:a4:19:4f:7c:71:
        7a:67:f0:3e:74:e7:0e:f1:73:7b:e0:0b:f5:b4:42:65:60:70:
        31:02:0f:b8:85:87:00:1b:51:e6:44:00:4f:c4:3d:12:c4:78:
        ad:c2:c6:c1:90:af:d0:ed:4f:2d:bb:a1:ce:f5:09:96:49:40:
        67:6e:95:11:57:7d:5d:f9:30:34:08:b4:8a:fe:69:bd:a7:86:
        a8:66:18:ef:06:25:c0:d2:ac:d1:d7:8d:92:81:d3:38:60:41:
        bf:49:fc:05
-----BEGIN CERTIFICATE-----
MIIGnzCCBYegAwIBAgIBATANBgkqhkiG9w0BAQsFADBHMQswCQYDVQQGEwJDTjEk
MCIGA1UECgwbc3RlYW0tYW50aS1kbnMtcG9pc29uaW5nIENBMRIwEAYDVQQDDAlQ
aXhpdi5uZXQwHhcNMjMwMjI1MTQxMTU5WhcNMjQwMjI1MTQxMTU5WjBHMQswCQYD
VQQGEwJDTjEkMCIGA1UECgwbc3RlYW0tYW50aS1kbnMtcG9pc29uaW5nIENBMRIw
EAYDVQQDDAlQaXhpdi5uZXQwggEiMA0GCSqGSIb3DQEBAQUAA4IBDwAwggEKAoIB
AQCQLJ8WT5pAxbdJiXCj1jM40djry0rjJCaMTvUHsRB2MPGOWxOudzykuOmzmq+V
3UHoELHHKFrH45F0+qaf1KBgV/+j4mw/sMHl2p4oH7zVQbIZhhnJTE10/wpnaXZD
jzxOsLeS3MyLiMUFoTxTbpvNUkVpAaOmVyyXQMlhUQbG/rxlUg4vaWaTwCaidReD
vL3XEXUMN3cgJxRsowJv33k/tOB4LhsWgwdXTj9uILJqQCVvqX0/qygz/3+dq//i
0a7aVdz9rVZEasly/YqsXg7p8C1cBip2iX7Qx/eCkIp73J0O8U5mgTYnWvyXyy3/
5MmJnVdqpC4F/4cuXUrgCmmrAgMBAAGjggOUMIIDkDALBgNVHQ8EBAMCB4AwHQYD
VR0lBBYwFAYIKwYBBQUHAwEGCCsGAQUFBwMCMAkGA1UdEwQCMAAwggLIBgNVHREE
ggK/MIICu4ILKi5waXhpdi5uZXSCCXBpeGl2Lm5ldIISKi5zZWN1cmUucGl4aXYu
bmV0gg5waXhpdmlzaW9uLm5ldIIQKi5waXhpdmlzaW9uLm5ldIIIcGl4aXYubWWC
CioucGl4aXYubWWCCXB4aW1nLm5ldIILKi5weGltZy5uZXSCD3BpeGl2c2tldGNo
Lm5ldIIRKi5waXhpdnNrZXRjaC5uZXSCG3B1YmxpYy1hcGkuc2VjdXJlLnBpeGl2
Lm5ldIIKZ29vZ2xlLmNvbYIMKi5nb29nbGUuY29tghJzdGVhbWNvbW11bml0eS5j
b22CFCouc3RlYW1jb21tdW5pdHkuY29tghBzdGVhbXBvd2VyZWQuY29tghIqLnN0
ZWFtcG93ZXJlZC5jb22CE2FyY2hpdmVvZm91cm93bi5vcmeCFSouYXJjaGl2ZW9m
b3Vyb3duLm9yZ4IHbnlhYS5zaYIJKi5ueWFhLnNpggxleGhlbnRhaS5vcmeCDGUt
aGVudGFpLm9yZ4ITZm9ydW1zLmUtaGVudGFpLm9yZ4IMKi5naXRodWIuY29tgg5k
dWNrZHVja2dvLmNvbYIfZXh0ZXJuYWwtY29udGVudC5kdWNrZHVja2dvLmNvbYIL
ZGlzY29yZC5jb22CDSouZGlzY29yZC5jb22CDmRpc2NvcmRhcHAuY29tghAqLmRp
c2NvcmRhcHAuY29tghAqLmRpc2NvcmRhcHAubmV0ggpkaXNjb3JkLmdnggwqLmRp
c2NvcmQuZ2eCCmdpdGh1Yi5jb22CFyouZ2l0aHVidXNlcmNvbnRlbnQuY29tghBn
aXRodWJzdGF0dXMuY29tghxnaXRodWIuZ2xvYmFsLnNzbC5mYXN0bHkubmV0ggwq
LmdpdGh1Yi5jb22CFWdpdGh1YnVzZXJjb250ZW50LmNvbTAdBgNVHQ4EFgQUKNmv
7bkN0b+1fTT5Y+M3kH5Hw1MwbAYDVR0jBGUwY6FLpEkwRzELMAkGA1UEBhMCQ04x
JDAiBgNVBAoMG3N0ZWFtLWFudGktZG5zLXBvaXNvbmluZyBDQTESMBAGA1UEAwwJ
UGl4aXYubmV0ghQw6Z37cSjFbeTpZZ//Tsa4F79rrTANBgkqhkiG9w0BAQsFAAOC
AQEAcljJFFBdQO9Lcur8g0FSf3Li84NB/7xugGbNtSd80S//OzQDFtK0k7g5FIPv
DzhuOejaSFFbHf1tS/Z7ikF806VDAqjs6oD1HQCQfclCokr8XZ86XGhRfRqlJyUt
s2TxHCZ0GI68lEQAupKFhKNSbLIAOz56dwSh95On4vNjxhkwH+/lz08hvgx7wdEW
PhIctpg6m7HWM0hryLbpoaQZT3xxemfwPnTnDvFze+AL9bRCZWBwMQIPuIWHABtR
5kQAT8Q9EsR4rcLGwZCv0O1PLbuhzvUJlklAZ26VEVd9XfkwNAi0iv5pvaeGqGYY
7wYlwNKs0deNkoHTOGBBv0n8BQ==
-----END CERTIFICATE-----
