Certificate:
    Data:
        Version: 3 (0x2)
        Serial Number: 1 (0x1)
        Signature Algorithm: sha256WithRSAEncryption
        Issuer: C=CN, O=steam-anti-dns-poisoning CA, CN=Pixiv.net
        Validity
            Not Before: Mar  7 08:55:46 2023 GMT
            Not After : Mar  6 08:55:46 2024 GMT
        Subject: C=CN, O=steam-anti-dns-poisoning CA, CN=Pixiv.net
        Subject Public Key Info:
            Public Key Algorithm: rsaEncryption
                Public-Key: (4096 bit)
                Modulus:
                    00:b8:a9:60:3f:6e:cc:52:3e:5f:0c:1e:c8:86:cb:
                    f3:65:f6:92:35:ab:f7:c3:48:05:f4:9f:45:24:ba:
                    5a:d1:f9:e7:8b:27:78:99:b5:5e:63:ee:bd:1a:72:
                    d6:5b:87:18:2a:84:95:09:83:99:7f:ff:8a:14:73:
                    73:b2:64:a8:a6:f1:00:7b:6c:d3:e7:39:02:40:43:
                    bc:45:5f:4f:a7:1f:46:e2:83:e4:1c:18:a2:e4:95:
                    8d:76:60:0a:a8:e8:e1:2e:b5:09:70:1c:d9:d5:81:
                    01:e6:61:ff:c2:87:0d:fc:aa:f9:e6:40:7b:19:0e:
                    fb:af:5d:6b:45:4e:13:91:3d:05:74:b6:00:8e:d7:
                    7a:72:0e:e9:04:5d:d5:10:6e:b8:76:c3:62:1a:b3:
                    ea:04:2d:20:90:57:68:68:6a:ea:04:de:b0:cc:61:
                    48:17:b8:51:f7:1b:c9:a8:7c:12:30:9f:5d:5a:bf:
                    60:02:45:ba:b0:e0:24:6a:b3:25:8a:6f:3a:06:92:
                    55:4b:0f:ed:e3:f6:ec:15:6b:64:63:8a:6d:20:71:
                    ae:cf:1e:11:3a:46:25:8e:3b:ed:9e:e4:a5:52:50:
                    cd:f3:32:e0:c1:06:fa:15:46:28:e1:8c:7b:25:66:
                    00:7d:38:f4:99:0e:cf:31:a1:a2:17:fd:9c:cc:76:
                    32:3f:50:86:b1:f5:68:18:78:c4:3c:43:1e:d5:65:
                    18:55:b5:95:b8:9e:96:f5:09:ad:39:b5:f1:ec:49:
                    00:0a:2a:41:6c:1c:1a:8f:fc:d1:f7:21:62:e4:5c:
                    81:0e:54:be:b6:cd:34:04:dd:c2:a9:e4:69:73:51:
                    6d:fb:4b:85:d9:a3:9a:e9:09:42:90:48:24:02:86:
                    61:2c:f5:9a:2a:c9:40:ff:d7:52:00:9a:b2:39:7c:
                    4a:d2:93:64:44:1b:57:24:0b:ab:2e:48:06:19:79:
                    ef:10:63:22:1c:b2:86:62:a8:aa:da:24:45:4f:85:
                    cc:79:0d:90:e2:d6:f5:73:3b:1d:ab:f8:97:90:fe:
                    c8:99:fe:e4:eb:41:30:57:14:1d:2b:e8:1a:85:7d:
                    b8:b0:95:73:d1:47:e3:97:e0:08:45:74:22:5f:1f:
                    4e:4d:ab:98:f8:f4:04:f4:f1:38:50:df:d0:04:11:
                    c2:55:9e:84:4f:dc:f5:c7:16:67:f2:27:ed:f8:cd:
                    b5:c0:87:10:c0:45:d7:b9:00:ff:e8:73:06:96:82:
                    f2:d1:b8:4f:f8:73:59:18:df:b8:8d:0d:41:92:81:
                    77:58:b2:ea:a1:b4:25:00:a4:db:26:84:2c:b2:e3:
                    a3:c7:01:5a:9d:86:f2:9d:dc:10:e8:6f:de:c2:1b:
                    c0:0f:0b
                Exponent: 65537 (0x10001)
        X509v3 extensions:
            X509v3 Key Usage: 
                Digital Signature
            X509v3 Extended Key Usage: 
                TLS Web Server Authentication, TLS Web Client Authentication
            X509v3 Basic Constraints: 
                CA:FALSE
            X509v3 Subject Alternative Name: 
                DNS:*.pixiv.net, DNS:pixiv.net, DNS:*.secure.pixiv.net, DNS:pixivision.net, DNS:*.pixivision.net, DNS:pixiv.me, DNS:*.pixiv.me, DNS:pximg.net, DNS:*.pximg.net, DNS:pixivsketch.net, DNS:*.pixivsketch.net, DNS:public-api.secure.pixiv.net, DNS:google.com, DNS:*.google.com, DNS:steamcommunity.com, DNS:*.steamcommunity.com, DNS:steampowered.com, DNS:*.steampowered.com, DNS:archiveofourown.org, DNS:*.archiveofourown.org, DNS:nyaa.si, DNS:*.nyaa.si, DNS:exhentai.org, DNS:e-hentai.org, DNS:forums.e-hentai.org, DNS:*.github.com, DNS:duckduckgo.com, DNS:external-content.duckduckgo.com, DNS:discord.com, DNS:*.discord.com, DNS:discordapp.com, DNS:*.discordapp.com, DNS:*.discordapp.net, DNS:discord.gg, DNS:*.discord.gg, DNS:github.com, DNS:*.githubusercontent.com, DNS:githubstatus.com, DNS:github.global.ssl.fastly.net, DNS:*.github.com, DNS:githubusercontent.com, DNS:onedrive.live.com, DNS:*.onedrive.live.com, DNS:1drv.ms, DNS:v2ex.com, DNS:*.v2ex.com, DNS:gravatar.com, DNS:*.gravatar.com
            X509v3 Subject Key Identifier: 
                C5:FD:73:64:27:B6:92:12:94:AF:F9:B6:3D:26:77:6E:D5:B0:D5:4E
            X509v3 Authority Key Identifier: 
                DirName:/C=CN/O=steam-anti-dns-poisoning CA/CN=Pixiv.net
                serial:61:53:BC:98:3B:00:62:B3:5C:EC:FB:57:A3:0E:B6:79:53:B5:FC:D6
    Signature Algorithm: sha256WithRSAEncryption
    Signature Value:
        8b:9e:d1:7a:95:b4:98:fd:25:53:95:f7:59:f7:bf:8e:ce:8c:
        88:09:3f:d2:13:29:bc:f1:82:a8:e1:55:fa:59:f5:93:7d:b0:
        36:0f:01:7a:78:24:0a:c0:78:f5:bc:49:13:20:86:e6:7a:66:
        49:3e:42:93:d1:d1:81:25:2e:fc:0f:4f:87:16:9f:82:07:e6:
        05:a3:82:0f:5b:94:3a:ee:e7:5a:f5:78:54:94:ab:c6:f9:05:
        17:79:19:21:d9:90:e4:67:34:f8:97:a7:fe:42:6b:7b:b8:93:
        77:06:f7:ed:4b:09:77:e6:9c:02:ad:b0:a6:1b:19:29:df:2c:
        37:ca:56:86:1f:73:70:01:ac:b5:c1:77:50:d3:86:3a:4b:45:
        e7:e4:b5:e4:10:b5:72:46:76:01:04:80:38:72:86:e9:fc:1b:
        95:1c:00:b5:a1:68:f5:7f:31:91:6d:00:d2:46:19:45:01:44:
        81:21:97:2a:cd:7b:f3:0e:f6:dd:ed:c2:74:f9:ac:7a:56:ea:
        37:7f:58:31:37:bc:a8:5f:60:c1:63:53:45:7a:d6:2b:cd:41:
        d6:cc:c4:3a:d4:1c:82:0b:75:50:78:bd:d3:d9:50:3f:61:0e:
        08:83:c7:64:a8:6c:23:00:f5:4f:dc:f8:bb:84:34:97:85:ef:
        90:b6:26:eb:c2:0f:42:67:fd:31:60:7e:4b:4d:93:0a:61:86:
        5d:aa:7a:23:42:a1:02:42:90:ee:97:1d:36:80:78:b8:a0:49:
        5a:3d:e7:e9:fb:27:bb:a7:0e:b9:b6:e9:88:77:80:8d:cc:9e:
        65:95:46:88:2c:86:9f:36:ff:67:b4:80:89:e5:cb:df:ea:9a:
        ed:de:2d:14:8d:92:55:9f:cc:df:5a:90:8f:6e:07:18:3e:38:
        a8:e2:fe:bc:af:55:4d:d9:23:6d:27:86:a8:7f:bd:60:9a:ec:
        94:7b:e2:58:fe:62:d9:c3:08:2d:90:5b:6a:cd:e6:3d:b0:53:
        77:27:33:ec:2b:92:df:bb:08:5c:20:ee:47:51:61:e6:aa:11:
        a1:88:9c:2a:53:c7:76:3d:38:a8:e4:25:20:9e:7f:72:b7:02:
        fa:59:81:4f:3c:35:10:8e:b3:7d:b4:3a:9a:7f:33:b3:0e:8d:
        8c:35:fb:52:05:8f:f5:dd:65:21:b3:9d:63:d0:f5:28:45:5c:
        ef:38:ab:52:6e:5e:d8:fc:bb:af:37:d1:82:4e:cb:84:51:53:
        cc:25:4a:d6:98:cc:4e:b3:19:d2:bd:48:33:09:3f:d0:fb:c9:
        82:4f:fc:a2:b4:e1:f2:69:07:08:6b:e3:fd:6c:27:a5:a8:90:
        a2:be:a9:c0:69:22:c8:1f
-----BEGIN CERTIFICATE-----
MIIJBDCCBuygAwIBAgIBATANBgkqhkiG9w0BAQsFADBHMQswCQYDVQQGEwJDTjEk
MCIGA1UECgwbc3RlYW0tYW50aS1kbnMtcG9pc29uaW5nIENBMRIwEAYDVQQDDAlQ
aXhpdi5uZXQwHhcNMjMwMzA3MDg1NTQ2WhcNMjQwMzA2MDg1NTQ2WjBHMQswCQYD
VQQGEwJDTjEkMCIGA1UECgwbc3RlYW0tYW50aS1kbnMtcG9pc29uaW5nIENBMRIw
EAYDVQQDDAlQaXhpdi5uZXQwggIiMA0GCSqGSIb3DQEBAQUAA4ICDwAwggIKAoIC
AQC4qWA/bsxSPl8MHsiGy/Nl9pI1q/fDSAX0n0UkulrR+eeLJ3iZtV5j7r0actZb
hxgqhJUJg5l//4oUc3OyZKim8QB7bNPnOQJAQ7xFX0+nH0big+QcGKLklY12YAqo
6OEutQlwHNnVgQHmYf/Chw38qvnmQHsZDvuvXWtFThORPQV0tgCO13pyDukEXdUQ
brh2w2Ias+oELSCQV2hoauoE3rDMYUgXuFH3G8mofBIwn11av2ACRbqw4CRqsyWK
bzoGklVLD+3j9uwVa2Rjim0gca7PHhE6RiWOO+2e5KVSUM3zMuDBBvoVRijhjHsl
ZgB9OPSZDs8xoaIX/ZzMdjI/UIax9WgYeMQ8Qx7VZRhVtZW4npb1Ca05tfHsSQAK
KkFsHBqP/NH3IWLkXIEOVL62zTQE3cKp5GlzUW37S4XZo5rpCUKQSCQChmEs9Zoq
yUD/11IAmrI5fErSk2REG1ckC6suSAYZee8QYyIcsoZiqKraJEVPhcx5DZDi1vVz
Ox2r+JeQ/siZ/uTrQTBXFB0r6BqFfbiwlXPRR+OX4AhFdCJfH05Nq5j49AT08ThQ
39AEEcJVnoRP3PXHFmfyJ+34zbXAhxDARde5AP/ocwaWgvLRuE/4c1kY37iNDUGS
gXdYsuqhtCUApNsmhCyy46PHAVqdhvKd3BDob97CG8APCwIDAQABo4ID+TCCA/Uw
CwYDVR0PBAQDAgeAMB0GA1UdJQQWMBQGCCsGAQUFBwMBBggrBgEFBQcDAjAJBgNV
HRMEAjAAMIIDLQYDVR0RBIIDJDCCAyCCCyoucGl4aXYubmV0gglwaXhpdi5uZXSC
Eiouc2VjdXJlLnBpeGl2Lm5ldIIOcGl4aXZpc2lvbi5uZXSCECoucGl4aXZpc2lv
bi5uZXSCCHBpeGl2Lm1lggoqLnBpeGl2Lm1lgglweGltZy5uZXSCCyoucHhpbWcu
bmV0gg9waXhpdnNrZXRjaC5uZXSCESoucGl4aXZza2V0Y2gubmV0ghtwdWJsaWMt
YXBpLnNlY3VyZS5waXhpdi5uZXSCCmdvb2dsZS5jb22CDCouZ29vZ2xlLmNvbYIS
c3RlYW1jb21tdW5pdHkuY29tghQqLnN0ZWFtY29tbXVuaXR5LmNvbYIQc3RlYW1w
b3dlcmVkLmNvbYISKi5zdGVhbXBvd2VyZWQuY29tghNhcmNoaXZlb2ZvdXJvd24u
b3JnghUqLmFyY2hpdmVvZm91cm93bi5vcmeCB255YWEuc2mCCSoubnlhYS5zaYIM
ZXhoZW50YWkub3JnggxlLWhlbnRhaS5vcmeCE2ZvcnVtcy5lLWhlbnRhaS5vcmeC
DCouZ2l0aHViLmNvbYIOZHVja2R1Y2tnby5jb22CH2V4dGVybmFsLWNvbnRlbnQu
ZHVja2R1Y2tnby5jb22CC2Rpc2NvcmQuY29tgg0qLmRpc2NvcmQuY29tgg5kaXNj
b3JkYXBwLmNvbYIQKi5kaXNjb3JkYXBwLmNvbYIQKi5kaXNjb3JkYXBwLm5ldIIK
ZGlzY29yZC5nZ4IMKi5kaXNjb3JkLmdnggpnaXRodWIuY29tghcqLmdpdGh1YnVz
ZXJjb250ZW50LmNvbYIQZ2l0aHVic3RhdHVzLmNvbYIcZ2l0aHViLmdsb2JhbC5z
c2wuZmFzdGx5Lm5ldIIMKi5naXRodWIuY29tghVnaXRodWJ1c2VyY29udGVudC5j
b22CEW9uZWRyaXZlLmxpdmUuY29tghMqLm9uZWRyaXZlLmxpdmUuY29tggcxZHJ2
Lm1zggh2MmV4LmNvbYIKKi52MmV4LmNvbYIMZ3JhdmF0YXIuY29tgg4qLmdyYXZh
dGFyLmNvbTAdBgNVHQ4EFgQUxf1zZCe2khKUr/m2PSZ3btWw1U4wbAYDVR0jBGUw
Y6FLpEkwRzELMAkGA1UEBhMCQ04xJDAiBgNVBAoMG3N0ZWFtLWFudGktZG5zLXBv
aXNvbmluZyBDQTESMBAGA1UEAwwJUGl4aXYubmV0ghRhU7yYOwBis1zs+1ejDrZ5
U7X81jANBgkqhkiG9w0BAQsFAAOCAgEAi57RepW0mP0lU5X3Wfe/js6MiAk/0hMp
vPGCqOFV+ln1k32wNg8BengkCsB49bxJEyCG5npmST5Ck9HRgSUu/A9Phxafggfm
BaOCD1uUOu7nWvV4VJSrxvkFF3kZIdmQ5Gc0+Jen/kJre7iTdwb37UsJd+acAq2w
phsZKd8sN8pWhh9zcAGstcF3UNOGOktF5+S15BC1ckZ2AQSAOHKG6fwblRwAtaFo
9X8xkW0A0kYZRQFEgSGXKs178w723e3CdPmselbqN39YMTe8qF9gwWNTRXrWK81B
1szEOtQcggt1UHi909lQP2EOCIPHZKhsIwD1T9z4u4Q0l4XvkLYm68IPQmf9MWB+
S02TCmGGXap6I0KhAkKQ7pcdNoB4uKBJWj3n6fsnu6cOubbpiHeAjcyeZZVGiCyG
nzb/Z7SAieXL3+qa7d4tFI2SVZ/M31qQj24HGD44qOL+vK9VTdkjbSeGqH+9YJrs
lHviWP5i2cMILZBbas3mPbBTdycz7CuS37sIXCDuR1Fh5qoRoYicKlPHdj04qOQl
IJ5/crcC+lmBTzw1EI6zfbQ6mn8zsw6NjDX7UgWP9d1lIbOdY9D1KEVc7zirUm5e
2Py7rzfRgk7LhFFTzCVK1pjMTrMZ0r1IMwk/0PvJgk/8orTh8mkHCGvj/WwnpaiQ
or6pwGkiyB8=
-----END CERTIFICATE-----
