Certificate:
    Data:
        Version: 3 (0x2)
        Serial Number: 1 (0x1)
        Signature Algorithm: sha256WithRSAEncryption
        Issuer: C=CN, O=steam-anti-dns-poisoning CA, CN=Pixiv.net
        Validity
            Not Before: Feb 26 01:09:57 2023 GMT
            Not After : Feb 26 01:09:57 2024 GMT
        Subject: C=CN, O=steam-anti-dns-poisoning CA, CN=Pixiv.net
        Subject Public Key Info:
            Public Key Algorithm: rsaEncryption
                Public-Key: (2048 bit)
                Modulus:
                    00:91:d0:8d:bf:f4:a5:46:d5:29:3e:b5:4b:13:fd:
                    f2:d8:3e:9f:34:9f:44:c6:9b:f3:9b:d7:50:f3:57:
                    e5:69:18:a0:e6:b5:42:2e:9e:40:36:41:12:18:60:
                    f4:f1:7b:7a:9f:bf:9c:5e:2f:c1:e1:6f:5b:21:ef:
                    45:5e:e3:d1:4e:26:4c:e9:6f:df:b3:a7:b2:4f:8a:
                    6f:57:bb:6e:8f:66:5a:50:b3:af:36:53:04:e2:e7:
                    32:9e:16:38:98:58:87:4d:ce:7e:43:53:06:29:5b:
                    96:cf:8d:50:f7:51:04:fd:a3:06:56:62:7d:4a:2f:
                    14:21:a3:9d:62:50:b3:0b:18:cd:84:71:43:8e:bc:
                    45:03:9f:40:9b:4e:fd:b3:ac:63:b0:85:99:39:40:
                    45:8e:12:73:b2:2c:c2:ad:92:16:c2:8b:f6:f7:f3:
                    6e:88:c6:71:d5:3d:2a:31:c2:77:24:71:28:00:2c:
                    b7:58:fa:0a:91:67:10:ca:56:e0:14:8c:a2:a0:61:
                    b6:33:bb:e4:54:4d:3a:09:24:cc:0f:99:1a:5d:99:
                    25:96:11:73:9b:47:ef:8f:72:7c:f4:e7:65:63:a4:
                    41:bb:5e:48:37:0b:71:18:58:10:5d:5c:51:93:13:
                    84:cf:a3:da:58:7b:91:ce:d5:0a:37:2a:87:8a:b1:
                    71:8b
                Exponent: 65537 (0x10001)
        X509v3 extensions:
            X509v3 Key Usage: 
                Digital Signature
            X509v3 Extended Key Usage: 
                TLS Web Server Authentication, TLS Web Client Authentication
            X509v3 Basic Constraints: 
                CA:FALSE
            X509v3 Subject Alternative Name: 
                DNS:*.pixiv.net, DNS:pixiv.net, DNS:*.secure.pixiv.net, DNS:pixivision.net, DNS:*.pixivision.net, DNS:pixiv.me, DNS:*.pixiv.me, DNS:pximg.net, DNS:*.pximg.net, DNS:pixivsketch.net, DNS:*.pixivsketch.net, DNS:public-api.secure.pixiv.net, DNS:google.com, DNS:*.google.com, DNS:steamcommunity.com, DNS:*.steamcommunity.com, DNS:steampowered.com, DNS:*.steampowered.com, DNS:archiveofourown.org, DNS:*.archiveofourown.org, DNS:nyaa.si, DNS:*.nyaa.si, DNS:exhentai.org, DNS:e-hentai.org, DNS:forums.e-hentai.org, DNS:*.github.com, DNS:duckduckgo.com, DNS:external-content.duckduckgo.com, DNS:discord.com, DNS:*.discord.com, DNS:discordapp.com, DNS:*.discordapp.com, DNS:*.discordapp.net, DNS:discord.gg, DNS:*.discord.gg, DNS:github.com, DNS:*.githubusercontent.com, DNS:githubstatus.com, DNS:github.global.ssl.fastly.net, DNS:*.github.com, DNS:githubusercontent.com, DNS:medium.com
            X509v3 Subject Key Identifier: 
                53:D1:9A:03:2F:4A:91:7D:93:43:93:08:D6:79:3C:D8:5B:9D:20:3D
            X509v3 Authority Key Identifier: 
                DirName:/C=CN/O=steam-anti-dns-poisoning CA/CN=Pixiv.net
                serial:15:72:DA:54:94:BD:9D:7C:24:FE:D2:26:5F:2F:E2:6C:35:82:65:8B
    Signature Algorithm: sha256WithRSAEncryption
    Signature Value:
        3d:f1:4a:09:d3:29:cf:45:e6:88:f7:9b:3b:e6:1e:b9:ba:2c:
        c3:94:16:16:9d:da:34:86:f4:1d:56:00:27:e1:c7:4a:50:c7:
        14:a4:dd:d2:a5:04:06:95:eb:50:1c:00:92:a5:76:53:84:58:
        f3:ff:a1:09:c1:a6:e2:33:0a:44:31:8f:b1:e6:89:2e:ed:58:
        98:f6:33:d1:a0:1b:88:9c:b3:40:2c:3c:cc:80:7c:27:75:fc:
        f3:30:76:76:e2:20:77:92:78:f7:f9:6b:04:ba:40:ee:7c:0c:
        db:ba:ae:ce:a8:0a:08:a1:cf:b8:d5:28:fd:87:d0:f4:d7:20:
        2e:05:15:54:19:6d:05:99:62:29:40:cc:c2:d4:7d:de:4b:99:
        30:62:b8:2f:59:91:2f:41:e6:ea:93:62:55:a7:5e:98:c4:63:
        15:b6:2e:97:10:12:3e:01:8d:8f:ee:86:2d:1f:2b:d1:79:fa:
        43:ad:78:15:23:71:6c:49:3e:e4:32:7b:64:bd:36:8b:81:92:
        a4:e1:a7:e8:21:ac:58:96:da:8b:97:70:4f:7a:0c:b4:1f:c0:
        25:0b:97:00:60:cc:ac:72:d6:96:d1:1d:1a:22:ac:fd:92:cb:
        59:00:11:63:72:29:87:b0:a0:ec:80:93:13:2f:c6:7c:dc:1a:
        ec:d1:8e:60
-----BEGIN CERTIFICATE-----
MIIGqzCCBZOgAwIBAgIBATANBgkqhkiG9w0BAQsFADBHMQswCQYDVQQGEwJDTjEk
MCIGA1UECgwbc3RlYW0tYW50aS1kbnMtcG9pc29uaW5nIENBMRIwEAYDVQQDDAlQ
aXhpdi5uZXQwHhcNMjMwMjI2MDEwOTU3WhcNMjQwMjI2MDEwOTU3WjBHMQswCQYD
VQQGEwJDTjEkMCIGA1UECgwbc3RlYW0tYW50aS1kbnMtcG9pc29uaW5nIENBMRIw
EAYDVQQDDAlQaXhpdi5uZXQwggEiMA0GCSqGSIb3DQEBAQUAA4IBDwAwggEKAoIB
AQCR0I2/9KVG1Sk+tUsT/fLYPp80n0TGm/Ob11DzV+VpGKDmtUIunkA2QRIYYPTx
e3qfv5xeL8Hhb1sh70Ve49FOJkzpb9+zp7JPim9Xu26PZlpQs682UwTi5zKeFjiY
WIdNzn5DUwYpW5bPjVD3UQT9owZWYn1KLxQho51iULMLGM2EcUOOvEUDn0CbTv2z
rGOwhZk5QEWOEnOyLMKtkhbCi/b3826IxnHVPSoxwnckcSgALLdY+gqRZxDKVuAU
jKKgYbYzu+RUTToJJMwPmRpdmSWWEXObR++Pcnz052VjpEG7Xkg3C3EYWBBdXFGT
E4TPo9pYe5HO1Qo3KoeKsXGLAgMBAAGjggOgMIIDnDALBgNVHQ8EBAMCB4AwHQYD
VR0lBBYwFAYIKwYBBQUHAwEGCCsGAQUFBwMCMAkGA1UdEwQCMAAwggLUBgNVHREE
ggLLMIICx4ILKi5waXhpdi5uZXSCCXBpeGl2Lm5ldIISKi5zZWN1cmUucGl4aXYu
bmV0gg5waXhpdmlzaW9uLm5ldIIQKi5waXhpdmlzaW9uLm5ldIIIcGl4aXYubWWC
CioucGl4aXYubWWCCXB4aW1nLm5ldIILKi5weGltZy5uZXSCD3BpeGl2c2tldGNo
Lm5ldIIRKi5waXhpdnNrZXRjaC5uZXSCG3B1YmxpYy1hcGkuc2VjdXJlLnBpeGl2
Lm5ldIIKZ29vZ2xlLmNvbYIMKi5nb29nbGUuY29tghJzdGVhbWNvbW11bml0eS5j
b22CFCouc3RlYW1jb21tdW5pdHkuY29tghBzdGVhbXBvd2VyZWQuY29tghIqLnN0
ZWFtcG93ZXJlZC5jb22CE2FyY2hpdmVvZm91cm93bi5vcmeCFSouYXJjaGl2ZW9m
b3Vyb3duLm9yZ4IHbnlhYS5zaYIJKi5ueWFhLnNpggxleGhlbnRhaS5vcmeCDGUt
aGVudGFpLm9yZ4ITZm9ydW1zLmUtaGVudGFpLm9yZ4IMKi5naXRodWIuY29tgg5k
dWNrZHVja2dvLmNvbYIfZXh0ZXJuYWwtY29udGVudC5kdWNrZHVja2dvLmNvbYIL
ZGlzY29yZC5jb22CDSouZGlzY29yZC5jb22CDmRpc2NvcmRhcHAuY29tghAqLmRp
c2NvcmRhcHAuY29tghAqLmRpc2NvcmRhcHAubmV0ggpkaXNjb3JkLmdnggwqLmRp
c2NvcmQuZ2eCCmdpdGh1Yi5jb22CFyouZ2l0aHVidXNlcmNvbnRlbnQuY29tghBn
aXRodWJzdGF0dXMuY29tghxnaXRodWIuZ2xvYmFsLnNzbC5mYXN0bHkubmV0ggwq
LmdpdGh1Yi5jb22CFWdpdGh1YnVzZXJjb250ZW50LmNvbYIKbWVkaXVtLmNvbTAd
BgNVHQ4EFgQUU9GaAy9KkX2TQ5MI1nk82FudID0wbAYDVR0jBGUwY6FLpEkwRzEL
MAkGA1UEBhMCQ04xJDAiBgNVBAoMG3N0ZWFtLWFudGktZG5zLXBvaXNvbmluZyBD
QTESMBAGA1UEAwwJUGl4aXYubmV0ghQVctpUlL2dfCT+0iZfL+JsNYJlizANBgkq
hkiG9w0BAQsFAAOCAQEAPfFKCdMpz0XmiPebO+Yeubosw5QWFp3aNIb0HVYAJ+HH
SlDHFKTd0qUEBpXrUBwAkqV2U4RY8/+hCcGm4jMKRDGPseaJLu1YmPYz0aAbiJyz
QCw8zIB8J3X88zB2duIgd5J49/lrBLpA7nwM27quzqgKCKHPuNUo/YfQ9NcgLgUV
VBltBZliKUDMwtR93kuZMGK4L1mRL0Hm6pNiVademMRjFbYulxASPgGNj+6GLR8r
0Xn6Q614FSNxbEk+5DJ7ZL02i4GSpOGn6CGsWJbai5dwT3oMtB/AJQuXAGDMrHLW
ltEdGiKs/ZLLWQARY3Iph7Cg7ICTEy/GfNwa7NGOYA==
-----END CERTIFICATE-----
