Certificate:
    Data:
        Version: 3 (0x2)
        Serial Number: 1 (0x1)
        Signature Algorithm: sha256WithRSAEncryption
        Issuer: C=CN, O=Mashiro Internet Fake Authority CA, CN=Pixiv.net
        Validity
            Not Before: Jan 21 06:05:05 2023 GMT
            Not After : Jan 21 06:05:05 2024 GMT
        Subject: C=CN, O=Mashiro Internet Fake Authority CA, CN=Pixiv.net
        Subject Public Key Info:
            Public Key Algorithm: rsaEncryption
                Public-Key: (2048 bit)
                Modulus:
                    00:c7:8a:0c:83:e5:43:95:4c:5c:e9:58:ba:b5:d9:
                    a0:5e:e8:1e:44:db:e5:bb:bb:b4:59:4f:95:0c:6c:
                    dd:45:2b:67:c7:7c:06:ea:38:cf:a1:31:4e:80:23:
                    21:82:c3:9e:4f:7e:e0:bd:a6:c5:6e:5b:39:c9:9a:
                    e0:e9:64:f0:f2:fa:e8:52:e2:ee:9e:4e:b4:3e:67:
                    ed:3b:b8:ce:83:f3:72:ca:4b:bf:82:85:70:ce:e6:
                    9e:c9:14:ab:e1:3d:c0:e4:01:15:43:90:94:de:72:
                    9f:7e:70:02:d2:fc:85:95:0d:bf:ee:46:18:01:3c:
                    53:e3:7e:2d:4b:a8:5f:86:1b:bd:aa:d3:95:cd:9e:
                    a6:69:1d:a2:fb:4e:85:21:36:95:be:3a:66:2b:3f:
                    70:8a:05:09:dc:2e:f2:9d:d3:7b:c3:c7:3a:4d:18:
                    96:77:71:0c:ff:13:cf:cc:1d:62:6c:14:bb:9c:bf:
                    04:79:2d:3a:94:2c:31:c8:ac:0d:10:71:d2:df:cf:
                    0a:17:3d:b4:12:ed:ab:7f:27:1d:4c:24:4e:c0:82:
                    ba:79:07:57:cb:f4:65:cd:de:11:39:9c:23:c4:4d:
                    45:8e:f0:c4:25:7f:54:09:dd:63:a6:17:74:58:d8:
                    b6:34:6a:77:57:0f:0d:ce:0b:74:3c:63:32:6e:0e:
                    f0:9d
                Exponent: 65537 (0x10001)
        X509v3 extensions:
            X509v3 Key Usage: 
                Digital Signature
            X509v3 Extended Key Usage: 
                TLS Web Server Authentication, TLS Web Client Authentication
            X509v3 Basic Constraints: 
                CA:FALSE
            X509v3 Subject Alternative Name: 
                DNS:*.pixiv.net, DNS:pixiv.net, DNS:*.secure.pixiv.net, DNS:pixivision.net, DNS:*.pixivision.net, DNS:pixiv.me, DNS:*.pixiv.me, DNS:pximg.net, DNS:*.pximg.net, DNS:pixivsketch.net, DNS:*.pixivsketch.net, DNS:public-api.secure.pixiv.net, DNS:google.com, DNS:*.google.com, DNS:steamcommunity.com, DNS:*.steamcommunity.com, DNS:steampowered.com, DNS:*.steampowered.com, DNS:archiveofourown.org, DNS:*.archiveofourown.org, DNS:nyaa.si, DNS:*.nyaa.si, DNS:exhentai.org, DNS:e-hentai.org, DNS:forums.e-hentai.org, DNS:img.youtube.com, DNS:duckduckgo.com, DNS:external-content.duckduckgo.com, DNS:pax.discordapp.com, DNS:apps.discordapp.com, DNS:canary.discordapp.com, DNS:printer.discordapp.com, DNS:merch.discordapp.com, DNS:url7195.discordapp.com, DNS:-url9624.discordapp.com, DNS:i18n.discordapp.com, DNS:streamkit.discordapp.com, DNS:cdn-canary.discordapp.com, DNS:ptb.discordapp.com, DNS:cdn-ptb.discordapp.com, DNS:canary-api.discordapp.com, DNS:url9177.discordapp.com, DNS:support.discordapp.com, DNS:i18n.discord.com, DNS:ptb.discord.com, DNS:streamkit.discord.com, DNS:status.discord.com, DNS:click.discord.com, DNS:canary.discord.com, DNS:dl.discordapp.net, DNS:printer.discord.com, DNS:pax.discord.com, DNS:feedback.discord.com, DNS:updates.discord.com, DNS:discord.com, DNS:images-ext-2.discordapp.net, DNS:images-ext-1.discordapp.net, DNS:status.discordapp.com, DNS:media.discordapp.net, DNS:cdn.discordapp.com, DNS:discordapp.com, DNS:support.discord.com, DNS:support-dev.discord.com, DNS:images-2.discordapp.net, DNS:images-1.discordapp.net, DNS:gateway.discord.gg, DNS:github.com
            X509v3 Subject Key Identifier: 
                06:E8:0D:A7:99:D6:B1:FB:5E:07:58:A2:D7:8E:54:C1:E1:85:68:16
            X509v3 Authority Key Identifier: 
                DirName:/C=CN/O=Mashiro Internet Fake Authority CA/CN=Pixiv.net
                serial:21:F4:69:CC:2A:8A:E2:44:9C:D7:74:9C:30:E8:BD:E6:77:63:90:7B
    Signature Algorithm: sha256WithRSAEncryption
    Signature Value:
        6e:cc:22:55:d6:55:29:d6:10:3c:da:99:51:10:a5:74:2c:5c:
        b3:27:f3:f7:4a:8a:78:3e:5d:fd:99:45:66:38:74:96:26:77:
        2e:72:0c:fa:66:06:ed:0d:9c:38:e4:62:7f:c1:08:82:3f:30:
        03:1e:c1:e2:19:27:de:83:29:e1:87:03:74:81:21:0f:e9:3e:
        5f:0a:e9:3d:7b:b1:af:46:89:7b:d4:b8:94:ae:15:af:9c:2f:
        69:18:07:29:ea:e9:b6:ff:91:ea:43:a7:e5:15:d3:ff:27:fd:
        d0:fd:f3:e2:85:b1:31:24:5e:dc:15:4f:ed:00:b2:6c:00:58:
        49:35:d1:a3:8d:1a:5a:41:a8:12:5c:c5:dc:20:16:cf:28:5e:
        9f:9a:40:c6:42:98:a7:c9:b4:92:5e:d4:81:48:24:0a:af:72:
        4e:30:2c:af:31:90:a1:ff:ad:55:98:62:07:f4:3b:f4:43:11:
        2b:37:7d:0d:e1:37:85:e2:bd:62:31:8e:f3:89:2d:10:96:ed:
        d2:e1:5a:68:52:b8:de:44:a8:f9:ef:b0:de:e4:50:5f:9c:04:
        ad:9d:6f:1b:8f:1e:b7:ba:a4:67:57:49:fe:98:6e:04:f0:86:
        54:9e:7d:64:a6:cb:dc:9a:4b:e9:92:6b:33:40:98:f9:ee:19:
        6d:6b:e7:c8
-----BEGIN CERTIFICATE-----
MIIJJDCCCAygAwIBAgIBATANBgkqhkiG9w0BAQsFADBOMQswCQYDVQQGEwJDTjEr
MCkGA1UECgwiTWFzaGlybyBJbnRlcm5ldCBGYWtlIEF1dGhvcml0eSBDQTESMBAG
A1UEAwwJUGl4aXYubmV0MB4XDTIzMDEyMTA2MDUwNVoXDTI0MDEyMTA2MDUwNVow
TjELMAkGA1UEBhMCQ04xKzApBgNVBAoMIk1hc2hpcm8gSW50ZXJuZXQgRmFrZSBB
dXRob3JpdHkgQ0ExEjAQBgNVBAMMCVBpeGl2Lm5ldDCCASIwDQYJKoZIhvcNAQEB
BQADggEPADCCAQoCggEBAMeKDIPlQ5VMXOlYurXZoF7oHkTb5bu7tFlPlQxs3UUr
Z8d8Buo4z6ExToAjIYLDnk9+4L2mxW5bOcma4Olk8PL66FLi7p5OtD5n7Tu4zoPz
cspLv4KFcM7mnskUq+E9wOQBFUOQlN5yn35wAtL8hZUNv+5GGAE8U+N+LUuoX4Yb
varTlc2epmkdovtOhSE2lb46Zis/cIoFCdwu8p3Te8PHOk0YlndxDP8Tz8wdYmwU
u5y/BHktOpQsMcisDRBx0t/PChc9tBLtq38nHUwkTsCCunkHV8v0Zc3eETmcI8RN
RY7wxCV/VAndY6YXdFjYtjRqd1cPDc4LdDxjMm4O8J0CAwEAAaOCBgswggYHMAsG
A1UdDwQEAwIHgDAdBgNVHSUEFjAUBggrBgEFBQcDAQYIKwYBBQUHAwIwCQYDVR0T
BAIwADCCBTgGA1UdEQSCBS8wggUrggsqLnBpeGl2Lm5ldIIJcGl4aXYubmV0ghIq
LnNlY3VyZS5waXhpdi5uZXSCDnBpeGl2aXNpb24ubmV0ghAqLnBpeGl2aXNpb24u
bmV0gghwaXhpdi5tZYIKKi5waXhpdi5tZYIJcHhpbWcubmV0ggsqLnB4aW1nLm5l
dIIPcGl4aXZza2V0Y2gubmV0ghEqLnBpeGl2c2tldGNoLm5ldIIbcHVibGljLWFw
aS5zZWN1cmUucGl4aXYubmV0ggpnb29nbGUuY29tggwqLmdvb2dsZS5jb22CEnN0
ZWFtY29tbXVuaXR5LmNvbYIUKi5zdGVhbWNvbW11bml0eS5jb22CEHN0ZWFtcG93
ZXJlZC5jb22CEiouc3RlYW1wb3dlcmVkLmNvbYITYXJjaGl2ZW9mb3Vyb3duLm9y
Z4IVKi5hcmNoaXZlb2ZvdXJvd24ub3JnggdueWFhLnNpggkqLm55YWEuc2mCDGV4
aGVudGFpLm9yZ4IMZS1oZW50YWkub3JnghNmb3J1bXMuZS1oZW50YWkub3Jngg9p
bWcueW91dHViZS5jb22CDmR1Y2tkdWNrZ28uY29tgh9leHRlcm5hbC1jb250ZW50
LmR1Y2tkdWNrZ28uY29tghJwYXguZGlzY29yZGFwcC5jb22CE2FwcHMuZGlzY29y
ZGFwcC5jb22CFWNhbmFyeS5kaXNjb3JkYXBwLmNvbYIWcHJpbnRlci5kaXNjb3Jk
YXBwLmNvbYIUbWVyY2guZGlzY29yZGFwcC5jb22CFnVybDcxOTUuZGlzY29yZGFw
cC5jb22CFy11cmw5NjI0LmRpc2NvcmRhcHAuY29tghNpMThuLmRpc2NvcmRhcHAu
Y29tghhzdHJlYW1raXQuZGlzY29yZGFwcC5jb22CGWNkbi1jYW5hcnkuZGlzY29y
ZGFwcC5jb22CEnB0Yi5kaXNjb3JkYXBwLmNvbYIWY2RuLXB0Yi5kaXNjb3JkYXBw
LmNvbYIZY2FuYXJ5LWFwaS5kaXNjb3JkYXBwLmNvbYIWdXJsOTE3Ny5kaXNjb3Jk
YXBwLmNvbYIWc3VwcG9ydC5kaXNjb3JkYXBwLmNvbYIQaTE4bi5kaXNjb3JkLmNv
bYIPcHRiLmRpc2NvcmQuY29tghVzdHJlYW1raXQuZGlzY29yZC5jb22CEnN0YXR1
cy5kaXNjb3JkLmNvbYIRY2xpY2suZGlzY29yZC5jb22CEmNhbmFyeS5kaXNjb3Jk
LmNvbYIRZGwuZGlzY29yZGFwcC5uZXSCE3ByaW50ZXIuZGlzY29yZC5jb22CD3Bh
eC5kaXNjb3JkLmNvbYIUZmVlZGJhY2suZGlzY29yZC5jb22CE3VwZGF0ZXMuZGlz
Y29yZC5jb22CC2Rpc2NvcmQuY29tghtpbWFnZXMtZXh0LTIuZGlzY29yZGFwcC5u
ZXSCG2ltYWdlcy1leHQtMS5kaXNjb3JkYXBwLm5ldIIVc3RhdHVzLmRpc2NvcmRh
cHAuY29tghRtZWRpYS5kaXNjb3JkYXBwLm5ldIISY2RuLmRpc2NvcmRhcHAuY29t
gg5kaXNjb3JkYXBwLmNvbYITc3VwcG9ydC5kaXNjb3JkLmNvbYIXc3VwcG9ydC1k
ZXYuZGlzY29yZC5jb22CF2ltYWdlcy0yLmRpc2NvcmRhcHAubmV0ghdpbWFnZXMt
MS5kaXNjb3JkYXBwLm5ldIISZ2F0ZXdheS5kaXNjb3JkLmdnggpnaXRodWIuY29t
MB0GA1UdDgQWBBQG6A2nmdax+14HWKLXjlTB4YVoFjBzBgNVHSMEbDBqoVKkUDBO
MQswCQYDVQQGEwJDTjErMCkGA1UECgwiTWFzaGlybyBJbnRlcm5ldCBGYWtlIEF1
dGhvcml0eSBDQTESMBAGA1UEAwwJUGl4aXYubmV0ghQh9GnMKoriRJzXdJww6L3m
d2OQezANBgkqhkiG9w0BAQsFAAOCAQEAbswiVdZVKdYQPNqZURCldCxcsyfz90qK
eD5d/ZlFZjh0liZ3LnIM+mYG7Q2cOORif8EIgj8wAx7B4hkn3oMp4YcDdIEhD+k+
XwrpPXuxr0aJe9S4lK4Vr5wvaRgHKerptv+R6kOn5RXT/yf90P3z4oWxMSRe3BVP
7QCybABYSTXRo40aWkGoElzF3CAWzyhen5pAxkKYp8m0kl7UgUgkCq9yTjAsrzGQ
of+tVZhiB/Q79EMRKzd9DeE3heK9YjGO84ktEJbt0uFaaFK43kSo+e+w3uRQX5wE
rZ1vG48et7qkZ1dJ/phuBPCGVJ59ZKbL3JpL6ZJrM0CY+e4ZbWvnyA==
-----END CERTIFICATE-----
