Certificate:
    Data:
        Version: 3 (0x2)
        Serial Number: 1 (0x1)
        Signature Algorithm: sha256WithRSAEncryption
        Issuer: C=CN, O=steam-anti-dns-poisoning CA, CN=Pixiv.net
        Validity
            Not Before: Feb 23 10:17:31 2023 GMT
            Not After : Feb 23 10:17:31 2024 GMT
        Subject: C=CN, O=steam-anti-dns-poisoning CA, CN=Pixiv.net
        Subject Public Key Info:
            Public Key Algorithm: rsaEncryption
                Public-Key: (2048 bit)
                Modulus:
                    00:b5:92:aa:7e:c6:64:44:3d:fa:c1:7f:43:15:5d:
                    bc:6c:d1:43:19:25:e0:20:d9:89:f0:e3:ab:f4:85:
                    b1:3b:ac:f1:75:d8:8e:0d:9a:ad:19:c3:e6:5e:61:
                    86:87:e9:5c:c2:21:c4:20:75:a8:61:56:66:75:75:
                    7b:35:02:88:3a:fe:88:b1:f5:d6:79:9a:d0:47:22:
                    b2:a6:89:74:51:da:56:c2:98:ce:c3:e9:0f:72:3a:
                    e4:84:aa:eb:be:2c:e7:9e:26:8e:cb:6e:8b:8c:03:
                    4b:d8:9d:c2:87:32:bf:bb:bb:6c:44:bd:b8:6c:5c:
                    2d:4f:d9:c4:b7:0e:30:cd:98:64:d9:05:d2:15:a8:
                    9f:c2:a7:52:08:47:a2:e2:ab:84:30:ec:ef:45:7b:
                    ba:0c:e6:ca:c0:5f:1d:f4:16:d2:5a:46:dc:bc:d2:
                    f9:7d:b8:df:9c:ed:be:c9:07:6d:63:51:30:46:cd:
                    ad:dd:e8:cf:13:17:32:1e:85:d0:04:e5:80:48:a0:
                    61:67:a2:be:34:2c:e5:c3:68:50:ea:75:b0:0f:6f:
                    14:f1:4d:eb:3e:56:97:d1:de:e7:68:1b:2a:e4:ad:
                    0a:96:72:d8:14:c9:9b:06:db:9e:ae:e5:5a:0c:f0:
                    1c:c7:ef:69:de:fb:d0:f1:a1:6e:6a:2d:39:66:f9:
                    eb:7b
                Exponent: 65537 (0x10001)
        X509v3 extensions:
            X509v3 Key Usage: 
                Digital Signature
            X509v3 Extended Key Usage: 
                TLS Web Server Authentication, TLS Web Client Authentication
            X509v3 Basic Constraints: 
                CA:FALSE
            X509v3 Subject Alternative Name: 
                DNS:*.pixiv.net, DNS:pixiv.net, DNS:*.secure.pixiv.net, DNS:pixivision.net, DNS:*.pixivision.net, DNS:pixiv.me, DNS:*.pixiv.me, DNS:pximg.net, DNS:*.pximg.net, DNS:pixivsketch.net, DNS:*.pixivsketch.net, DNS:public-api.secure.pixiv.net, DNS:google.com, DNS:*.google.com, DNS:steamcommunity.com, DNS:*.steamcommunity.com, DNS:steampowered.com, DNS:*.steampowered.com, DNS:archiveofourown.org, DNS:*.archiveofourown.org, DNS:nyaa.si, DNS:*.nyaa.si, DNS:exhentai.org, DNS:e-hentai.org, DNS:forums.e-hentai.org, DNS:*.github.com, DNS:duckduckgo.com, DNS:external-content.duckduckgo.com, DNS:discord.com, DNS:*.discord.com, DNS:discordapp.com, DNS:*.discordapp.com, DNS:discordapp.net, DNS:*.discordapp.net, DNS:discord.gg, DNS:*.discord.gg, DNS:github.com, DNS:*.githubsercontent.com, DNS:githubstatus.com, DNS:github.global.ssl.fastly.net
            X509v3 Subject Key Identifier: 
                72:11:E9:E7:5E:5B:3F:8B:8F:09:6B:5E:40:0A:BA:37:AC:C3:44:30
            X509v3 Authority Key Identifier: 
                DirName:/C=CN/O=steam-anti-dns-poisoning CA/CN=Pixiv.net
                serial:6B:82:E1:D5:A0:7C:2F:D0:51:89:4F:E4:94:69:F1:3D:45:62:16:31
    Signature Algorithm: sha256WithRSAEncryption
    Signature Value:
        c7:e3:75:9c:0c:56:8c:bc:04:ed:f1:25:80:ea:7c:50:2f:2a:
        6c:29:fd:e2:e4:75:7d:35:cb:31:5b:8a:43:90:f3:66:1e:fb:
        2b:bd:23:dc:a5:3c:92:08:ae:ed:13:72:e8:6b:84:08:d4:c5:
        99:42:a2:93:ec:04:bf:6a:d9:76:ad:7c:d7:78:a0:5f:c0:27:
        d1:62:89:f2:61:b1:8a:19:6a:1e:f3:eb:3f:2d:50:ac:63:b6:
        62:ea:a8:4e:15:6a:ae:ef:74:54:87:e3:e4:c9:5c:86:e1:1f:
        26:a4:5d:c1:bd:ea:98:57:af:79:73:f0:ff:e7:a2:2e:07:cd:
        52:15:30:4d:0e:15:e3:1d:c8:00:c9:53:dd:bd:d5:a5:8b:c9:
        41:fd:be:5d:9d:1b:fc:a9:e3:38:7c:56:68:b0:86:df:33:62:
        39:79:9e:e7:29:14:68:78:1c:fb:89:1f:92:c6:42:20:b6:44:
        e9:70:58:25:5a:8c:4b:5f:83:6a:d7:d2:f1:ed:f2:53:cd:84:
        d8:36:19:aa:24:a8:b5:38:30:b9:25:bd:26:12:26:6f:23:0f:
        e6:93:76:2c:a7:8b:8f:d7:9d:3c:80:16:a9:cd:3e:c6:cd:aa:
        03:6b:1b:3e:16:89:0b:07:1e:98:c0:c9:bb:f7:5e:ed:e1:b8:
        f0:3d:d4:af
-----BEGIN CERTIFICATE-----
MIIGiTCCBXGgAwIBAgIBATANBgkqhkiG9w0BAQsFADBHMQswCQYDVQQGEwJDTjEk
MCIGA1UECgwbc3RlYW0tYW50aS1kbnMtcG9pc29uaW5nIENBMRIwEAYDVQQDDAlQ
aXhpdi5uZXQwHhcNMjMwMjIzMTAxNzMxWhcNMjQwMjIzMTAxNzMxWjBHMQswCQYD
VQQGEwJDTjEkMCIGA1UECgwbc3RlYW0tYW50aS1kbnMtcG9pc29uaW5nIENBMRIw
EAYDVQQDDAlQaXhpdi5uZXQwggEiMA0GCSqGSIb3DQEBAQUAA4IBDwAwggEKAoIB
AQC1kqp+xmREPfrBf0MVXbxs0UMZJeAg2Ynw46v0hbE7rPF12I4Nmq0Zw+ZeYYaH
6VzCIcQgdahhVmZ1dXs1Aog6/oix9dZ5mtBHIrKmiXRR2lbCmM7D6Q9yOuSEquu+
LOeeJo7LbouMA0vYncKHMr+7u2xEvbhsXC1P2cS3DjDNmGTZBdIVqJ/Cp1IIR6Li
q4Qw7O9Fe7oM5srAXx30FtJaRty80vl9uN+c7b7JB21jUTBGza3d6M8TFzIehdAE
5YBIoGFnor40LOXDaFDqdbAPbxTxTes+VpfR3udoGyrkrQqWctgUyZsG256u5VoM
8BzH72ne+9DxoW5qLTlm+et7AgMBAAGjggN+MIIDejALBgNVHQ8EBAMCB4AwHQYD
VR0lBBYwFAYIKwYBBQUHAwEGCCsGAQUFBwMCMAkGA1UdEwQCMAAwggKyBgNVHREE
ggKpMIICpYILKi5waXhpdi5uZXSCCXBpeGl2Lm5ldIISKi5zZWN1cmUucGl4aXYu
bmV0gg5waXhpdmlzaW9uLm5ldIIQKi5waXhpdmlzaW9uLm5ldIIIcGl4aXYubWWC
CioucGl4aXYubWWCCXB4aW1nLm5ldIILKi5weGltZy5uZXSCD3BpeGl2c2tldGNo
Lm5ldIIRKi5waXhpdnNrZXRjaC5uZXSCG3B1YmxpYy1hcGkuc2VjdXJlLnBpeGl2
Lm5ldIIKZ29vZ2xlLmNvbYIMKi5nb29nbGUuY29tghJzdGVhbWNvbW11bml0eS5j
b22CFCouc3RlYW1jb21tdW5pdHkuY29tghBzdGVhbXBvd2VyZWQuY29tghIqLnN0
ZWFtcG93ZXJlZC5jb22CE2FyY2hpdmVvZm91cm93bi5vcmeCFSouYXJjaGl2ZW9m
b3Vyb3duLm9yZ4IHbnlhYS5zaYIJKi5ueWFhLnNpggxleGhlbnRhaS5vcmeCDGUt
aGVudGFpLm9yZ4ITZm9ydW1zLmUtaGVudGFpLm9yZ4IMKi5naXRodWIuY29tgg5k
dWNrZHVja2dvLmNvbYIfZXh0ZXJuYWwtY29udGVudC5kdWNrZHVja2dvLmNvbYIL
ZGlzY29yZC5jb22CDSouZGlzY29yZC5jb22CDmRpc2NvcmRhcHAuY29tghAqLmRp
c2NvcmRhcHAuY29tgg5kaXNjb3JkYXBwLm5ldIIQKi5kaXNjb3JkYXBwLm5ldIIK
ZGlzY29yZC5nZ4IMKi5kaXNjb3JkLmdnggpnaXRodWIuY29tghYqLmdpdGh1YnNl
cmNvbnRlbnQuY29tghBnaXRodWJzdGF0dXMuY29tghxnaXRodWIuZ2xvYmFsLnNz
bC5mYXN0bHkubmV0MB0GA1UdDgQWBBRyEennXls/i48Ja15ACro3rMNEMDBsBgNV
HSMEZTBjoUukSTBHMQswCQYDVQQGEwJDTjEkMCIGA1UECgwbc3RlYW0tYW50aS1k
bnMtcG9pc29uaW5nIENBMRIwEAYDVQQDDAlQaXhpdi5uZXSCFGuC4dWgfC/QUYlP
5JRp8T1FYhYxMA0GCSqGSIb3DQEBCwUAA4IBAQDH43WcDFaMvATt8SWA6nxQLyps
Kf3i5HV9NcsxW4pDkPNmHvsrvSPcpTySCK7tE3Loa4QI1MWZQqKT7AS/atl2rXzX
eKBfwCfRYonyYbGKGWoe8+s/LVCsY7Zi6qhOFWqu73RUh+PkyVyG4R8mpF3BveqY
V695c/D/56IuB81SFTBNDhXjHcgAyVPdvdWli8lB/b5dnRv8qeM4fFZosIbfM2I5
eZ7nKRRoeBz7iR+SxkIgtkTpcFglWoxLX4Nq19Lx7fJTzYTYNhmqJKi1ODC5Jb0m
EiZvIw/mk3Ysp4uP1508gBapzT7GzaoDaxs+FokLBx6YwMm7917t4bjwPdSv
-----END CERTIFICATE-----
